
Tetris.elf:     file format elf32-avr

Sections:
Idx Name          Size      VMA       LMA       File off  Algn
  0 .data         000000a0  00800100  0000232c  000023c0  2**0
                  CONTENTS, ALLOC, LOAD, DATA
  1 .text         0000232c  00000000  00000000  00000094  2**1
                  CONTENTS, ALLOC, LOAD, READONLY, CODE
  2 .bss          000005ac  008001a0  008001a0  00002460  2**0
                  ALLOC
  3 .comment      0000005c  00000000  00000000  00002460  2**0
                  CONTENTS, READONLY
  4 .note.gnu.avr.deviceinfo 00000040  00000000  00000000  000024bc  2**2
                  CONTENTS, READONLY
  5 .debug_aranges 00000128  00000000  00000000  000024fc  2**0
                  CONTENTS, READONLY, DEBUGGING
  6 .debug_info   00002dc6  00000000  00000000  00002624  2**0
                  CONTENTS, READONLY, DEBUGGING
  7 .debug_abbrev 00000c51  00000000  00000000  000053ea  2**0
                  CONTENTS, READONLY, DEBUGGING
  8 .debug_line   000014af  00000000  00000000  0000603b  2**0
                  CONTENTS, READONLY, DEBUGGING
  9 .debug_frame  000002b8  00000000  00000000  000074ec  2**2
                  CONTENTS, READONLY, DEBUGGING
 10 .debug_str    0000075d  00000000  00000000  000077a4  2**0
                  CONTENTS, READONLY, DEBUGGING
 11 .debug_loc    000022d9  00000000  00000000  00007f01  2**0
                  CONTENTS, READONLY, DEBUGGING
 12 .debug_ranges 00000208  00000000  00000000  0000a1da  2**0
                  CONTENTS, READONLY, DEBUGGING

Disassembly of section .text:

00000000 <__vectors>:
       0:	0c 94 ac 01 	jmp	0x358	; 0x358 <__ctors_end>
       4:	0c 94 c9 01 	jmp	0x392	; 0x392 <__bad_interrupt>
       8:	0c 94 c9 01 	jmp	0x392	; 0x392 <__bad_interrupt>
       c:	0c 94 c9 01 	jmp	0x392	; 0x392 <__bad_interrupt>
      10:	0c 94 c9 01 	jmp	0x392	; 0x392 <__bad_interrupt>
      14:	0c 94 c9 01 	jmp	0x392	; 0x392 <__bad_interrupt>
      18:	0c 94 c9 01 	jmp	0x392	; 0x392 <__bad_interrupt>
      1c:	0c 94 c9 01 	jmp	0x392	; 0x392 <__bad_interrupt>
      20:	0c 94 c9 01 	jmp	0x392	; 0x392 <__bad_interrupt>
      24:	0c 94 c9 01 	jmp	0x392	; 0x392 <__bad_interrupt>
      28:	0c 94 c9 01 	jmp	0x392	; 0x392 <__bad_interrupt>
      2c:	0c 94 c9 01 	jmp	0x392	; 0x392 <__bad_interrupt>
      30:	0c 94 c9 01 	jmp	0x392	; 0x392 <__bad_interrupt>
      34:	0c 94 c9 01 	jmp	0x392	; 0x392 <__bad_interrupt>
      38:	0c 94 59 02 	jmp	0x4b2	; 0x4b2 <__vector_14>
      3c:	0c 94 c9 01 	jmp	0x392	; 0x392 <__bad_interrupt>
      40:	0c 94 c9 01 	jmp	0x392	; 0x392 <__bad_interrupt>
      44:	0c 94 c9 01 	jmp	0x392	; 0x392 <__bad_interrupt>
      48:	0c 94 2b 02 	jmp	0x456	; 0x456 <__vector_18>
      4c:	0c 94 c9 01 	jmp	0x392	; 0x392 <__bad_interrupt>
      50:	0c 94 c9 01 	jmp	0x392	; 0x392 <__bad_interrupt>
      54:	0c 94 c9 01 	jmp	0x392	; 0x392 <__bad_interrupt>
      58:	0c 94 c9 01 	jmp	0x392	; 0x392 <__bad_interrupt>
      5c:	0c 94 c9 01 	jmp	0x392	; 0x392 <__bad_interrupt>
      60:	0c 94 c9 01 	jmp	0x392	; 0x392 <__bad_interrupt>
      64:	0c 94 c9 01 	jmp	0x392	; 0x392 <__bad_interrupt>
      68:	d2 08       	sbc	r13, r2
      6a:	df 08       	sbc	r13, r15
      6c:	ec 08       	sbc	r14, r12
      6e:	f9 08       	sbc	r15, r9
      70:	06 09       	sbc	r16, r6
      72:	13 09       	sbc	r17, r3
      74:	20 09       	sbc	r18, r0
      76:	2d 09       	sbc	r18, r13

00000078 <__trampolines_end>:
      78:	00 00       	nop
      7a:	01 00       	.word	0x0001	; ????
      7c:	02 00       	.word	0x0002	; ????
      7e:	03 00       	.word	0x0003	; ????
      80:	04 00       	.word	0x0004	; ????
      82:	05 00       	.word	0x0005	; ????
      84:	06 00       	.word	0x0006	; ????
      86:	07 00       	.word	0x0007	; ????
      88:	08 00       	.word	0x0008	; ????
      8a:	09 00       	.word	0x0009	; ????
      8c:	0a 00       	.word	0x000a	; ????
      8e:	0b 00       	.word	0x000b	; ????
      90:	17 00       	.word	0x0017	; ????
      92:	16 00       	.word	0x0016	; ????
      94:	15 00       	.word	0x0015	; ????
      96:	14 00       	.word	0x0014	; ????
      98:	13 00       	.word	0x0013	; ????
      9a:	12 00       	.word	0x0012	; ????
      9c:	11 00       	.word	0x0011	; ????
      9e:	10 00       	.word	0x0010	; ????
      a0:	0f 00       	.word	0x000f	; ????
      a2:	0e 00       	.word	0x000e	; ????
      a4:	0d 00       	.word	0x000d	; ????
      a6:	0c 00       	.word	0x000c	; ????
      a8:	18 00       	.word	0x0018	; ????
      aa:	19 00       	.word	0x0019	; ????
      ac:	1a 00       	.word	0x001a	; ????
      ae:	1b 00       	.word	0x001b	; ????
      b0:	1c 00       	.word	0x001c	; ????
      b2:	1d 00       	.word	0x001d	; ????
      b4:	1e 00       	.word	0x001e	; ????
      b6:	1f 00       	.word	0x001f	; ????
      b8:	20 00       	.word	0x0020	; ????
      ba:	21 00       	.word	0x0021	; ????
      bc:	22 00       	.word	0x0022	; ????
      be:	23 00       	.word	0x0023	; ????
      c0:	2f 00       	.word	0x002f	; ????
      c2:	2e 00       	.word	0x002e	; ????
      c4:	2d 00       	.word	0x002d	; ????
      c6:	2c 00       	.word	0x002c	; ????
      c8:	2b 00       	.word	0x002b	; ????
      ca:	2a 00       	.word	0x002a	; ????
      cc:	29 00       	.word	0x0029	; ????
      ce:	28 00       	.word	0x0028	; ????
      d0:	27 00       	.word	0x0027	; ????
      d2:	26 00       	.word	0x0026	; ????
      d4:	25 00       	.word	0x0025	; ????
      d6:	24 00       	.word	0x0024	; ????
      d8:	30 00       	.word	0x0030	; ????
      da:	31 00       	.word	0x0031	; ????
      dc:	32 00       	.word	0x0032	; ????
      de:	33 00       	.word	0x0033	; ????
      e0:	34 00       	.word	0x0034	; ????
      e2:	35 00       	.word	0x0035	; ????
      e4:	36 00       	.word	0x0036	; ????
      e6:	37 00       	.word	0x0037	; ????
      e8:	38 00       	.word	0x0038	; ????
      ea:	39 00       	.word	0x0039	; ????
      ec:	3a 00       	.word	0x003a	; ????
      ee:	3b 00       	.word	0x003b	; ????
      f0:	47 00       	.word	0x0047	; ????
      f2:	46 00       	.word	0x0046	; ????
      f4:	45 00       	.word	0x0045	; ????
      f6:	44 00       	.word	0x0044	; ????
      f8:	43 00       	.word	0x0043	; ????
      fa:	42 00       	.word	0x0042	; ????
      fc:	41 00       	.word	0x0041	; ????
      fe:	40 00       	.word	0x0040	; ????
     100:	3f 00       	.word	0x003f	; ????
     102:	3e 00       	.word	0x003e	; ????
     104:	3d 00       	.word	0x003d	; ????
     106:	3c 00       	.word	0x003c	; ????
     108:	48 00       	.word	0x0048	; ????
     10a:	49 00       	.word	0x0049	; ????
     10c:	4a 00       	.word	0x004a	; ????
     10e:	4b 00       	.word	0x004b	; ????
     110:	4c 00       	.word	0x004c	; ????
     112:	4d 00       	.word	0x004d	; ????
     114:	4e 00       	.word	0x004e	; ????
     116:	4f 00       	.word	0x004f	; ????
     118:	50 00       	.word	0x0050	; ????
     11a:	51 00       	.word	0x0051	; ????
     11c:	52 00       	.word	0x0052	; ????
     11e:	53 00       	.word	0x0053	; ????
     120:	5f 00       	.word	0x005f	; ????
     122:	5e 00       	.word	0x005e	; ????
     124:	5d 00       	.word	0x005d	; ????
     126:	5c 00       	.word	0x005c	; ????
     128:	5b 00       	.word	0x005b	; ????
     12a:	5a 00       	.word	0x005a	; ????
     12c:	59 00       	.word	0x0059	; ????
     12e:	58 00       	.word	0x0058	; ????
     130:	57 00       	.word	0x0057	; ????
     132:	56 00       	.word	0x0056	; ????
     134:	55 00       	.word	0x0055	; ????
     136:	54 00       	.word	0x0054	; ????
     138:	60 00       	.word	0x0060	; ????
     13a:	61 00       	.word	0x0061	; ????
     13c:	62 00       	.word	0x0062	; ????
     13e:	63 00       	.word	0x0063	; ????
     140:	64 00       	.word	0x0064	; ????
     142:	65 00       	.word	0x0065	; ????
     144:	66 00       	.word	0x0066	; ????
     146:	67 00       	.word	0x0067	; ????
     148:	68 00       	.word	0x0068	; ????
     14a:	69 00       	.word	0x0069	; ????
     14c:	6a 00       	.word	0x006a	; ????
     14e:	6b 00       	.word	0x006b	; ????
     150:	77 00       	.word	0x0077	; ????
     152:	76 00       	.word	0x0076	; ????
     154:	75 00       	.word	0x0075	; ????
     156:	74 00       	.word	0x0074	; ????
     158:	73 00       	.word	0x0073	; ????
     15a:	72 00       	.word	0x0072	; ????
     15c:	71 00       	.word	0x0071	; ????
     15e:	70 00       	.word	0x0070	; ????
     160:	6f 00       	.word	0x006f	; ????
     162:	6e 00       	.word	0x006e	; ????
     164:	6d 00       	.word	0x006d	; ????
     166:	6c 00       	.word	0x006c	; ????
     168:	78 00       	.word	0x0078	; ????
     16a:	79 00       	.word	0x0079	; ????
     16c:	7a 00       	.word	0x007a	; ????
     16e:	7b 00       	.word	0x007b	; ????
     170:	7c 00       	.word	0x007c	; ????
     172:	7d 00       	.word	0x007d	; ????
     174:	7e 00       	.word	0x007e	; ????
     176:	7f 00       	.word	0x007f	; ????
     178:	80 00       	.word	0x0080	; ????
     17a:	81 00       	.word	0x0081	; ????
     17c:	82 00       	.word	0x0082	; ????
     17e:	83 00       	.word	0x0083	; ????
     180:	8f 00       	.word	0x008f	; ????
     182:	8e 00       	.word	0x008e	; ????
     184:	8d 00       	.word	0x008d	; ????
     186:	8c 00       	.word	0x008c	; ????
     188:	8b 00       	.word	0x008b	; ????
     18a:	8a 00       	.word	0x008a	; ????
     18c:	89 00       	.word	0x0089	; ????
     18e:	88 00       	.word	0x0088	; ????
     190:	87 00       	.word	0x0087	; ????
     192:	86 00       	.word	0x0086	; ????
     194:	85 00       	.word	0x0085	; ????
     196:	84 00       	.word	0x0084	; ????
     198:	90 00       	.word	0x0090	; ????
     19a:	91 00       	.word	0x0091	; ????
     19c:	92 00       	.word	0x0092	; ????
     19e:	93 00       	.word	0x0093	; ????
     1a0:	94 00       	.word	0x0094	; ????
     1a2:	95 00       	.word	0x0095	; ????
     1a4:	96 00       	.word	0x0096	; ????
     1a6:	97 00       	.word	0x0097	; ????
     1a8:	98 00       	.word	0x0098	; ????
     1aa:	99 00       	.word	0x0099	; ????
     1ac:	9a 00       	.word	0x009a	; ????
     1ae:	9b 00       	.word	0x009b	; ????
     1b0:	a7 00       	.word	0x00a7	; ????
     1b2:	a6 00       	.word	0x00a6	; ????
     1b4:	a5 00       	.word	0x00a5	; ????
     1b6:	a4 00       	.word	0x00a4	; ????
     1b8:	a3 00       	.word	0x00a3	; ????
     1ba:	a2 00       	.word	0x00a2	; ????
     1bc:	a1 00       	.word	0x00a1	; ????
     1be:	a0 00       	.word	0x00a0	; ????
     1c0:	9f 00       	.word	0x009f	; ????
     1c2:	9e 00       	.word	0x009e	; ????
     1c4:	9d 00       	.word	0x009d	; ????
     1c6:	9c 00       	.word	0x009c	; ????
     1c8:	a8 00       	.word	0x00a8	; ????
     1ca:	a9 00       	.word	0x00a9	; ????
     1cc:	aa 00       	.word	0x00aa	; ????
     1ce:	ab 00       	.word	0x00ab	; ????
     1d0:	ac 00       	.word	0x00ac	; ????
     1d2:	ad 00       	.word	0x00ad	; ????
     1d4:	ae 00       	.word	0x00ae	; ????
     1d6:	af 00       	.word	0x00af	; ????
     1d8:	b0 00       	.word	0x00b0	; ????
     1da:	b1 00       	.word	0x00b1	; ????
     1dc:	b2 00       	.word	0x00b2	; ????
     1de:	b3 00       	.word	0x00b3	; ????
     1e0:	bf 00       	.word	0x00bf	; ????
     1e2:	be 00       	.word	0x00be	; ????
     1e4:	bd 00       	.word	0x00bd	; ????
     1e6:	bc 00       	.word	0x00bc	; ????
     1e8:	bb 00       	.word	0x00bb	; ????
     1ea:	ba 00       	.word	0x00ba	; ????
     1ec:	b9 00       	.word	0x00b9	; ????
     1ee:	b8 00       	.word	0x00b8	; ????
     1f0:	b7 00       	.word	0x00b7	; ????
     1f2:	b6 00       	.word	0x00b6	; ????
     1f4:	b5 00       	.word	0x00b5	; ????
     1f6:	b4 00       	.word	0x00b4	; ????
     1f8:	c0 00       	.word	0x00c0	; ????
     1fa:	c1 00       	.word	0x00c1	; ????
     1fc:	c2 00       	.word	0x00c2	; ????
     1fe:	c3 00       	.word	0x00c3	; ????
     200:	c4 00       	.word	0x00c4	; ????
     202:	c5 00       	.word	0x00c5	; ????
     204:	c6 00       	.word	0x00c6	; ????
     206:	c7 00       	.word	0x00c7	; ????
     208:	c8 00       	.word	0x00c8	; ????
     20a:	c9 00       	.word	0x00c9	; ????
     20c:	ca 00       	.word	0x00ca	; ????
     20e:	cb 00       	.word	0x00cb	; ????
     210:	d7 00       	.word	0x00d7	; ????
     212:	d6 00       	.word	0x00d6	; ????
     214:	d5 00       	.word	0x00d5	; ????
     216:	d4 00       	.word	0x00d4	; ????
     218:	d3 00       	.word	0x00d3	; ????
     21a:	d2 00       	.word	0x00d2	; ????
     21c:	d1 00       	.word	0x00d1	; ????
     21e:	d0 00       	.word	0x00d0	; ????
     220:	cf 00       	.word	0x00cf	; ????
     222:	ce 00       	.word	0x00ce	; ????
     224:	cd 00       	.word	0x00cd	; ????
     226:	cc 00       	.word	0x00cc	; ????
     228:	d8 00       	.word	0x00d8	; ????
     22a:	d9 00       	.word	0x00d9	; ????
     22c:	da 00       	.word	0x00da	; ????
     22e:	db 00       	.word	0x00db	; ????
     230:	dc 00       	.word	0x00dc	; ????
     232:	dd 00       	.word	0x00dd	; ????
     234:	de 00       	.word	0x00de	; ????
     236:	df 00       	.word	0x00df	; ????
     238:	e0 00       	.word	0x00e0	; ????
     23a:	e1 00       	.word	0x00e1	; ????
     23c:	e2 00       	.word	0x00e2	; ????
     23e:	e3 00       	.word	0x00e3	; ????
     240:	ef 00       	.word	0x00ef	; ????
     242:	ee 00       	.word	0x00ee	; ????
     244:	ed 00       	.word	0x00ed	; ????
     246:	ec 00       	.word	0x00ec	; ????
     248:	eb 00       	.word	0x00eb	; ????
     24a:	ea 00       	.word	0x00ea	; ????
     24c:	e9 00       	.word	0x00e9	; ????
     24e:	e8 00       	.word	0x00e8	; ????
     250:	e7 00       	.word	0x00e7	; ????
     252:	e6 00       	.word	0x00e6	; ????
     254:	e5 00       	.word	0x00e5	; ????
     256:	e4 00       	.word	0x00e4	; ????
     258:	f0 00       	.word	0x00f0	; ????
     25a:	f1 00       	.word	0x00f1	; ????
     25c:	f2 00       	.word	0x00f2	; ????
     25e:	f3 00       	.word	0x00f3	; ????
     260:	f4 00       	.word	0x00f4	; ????
     262:	f5 00       	.word	0x00f5	; ????
     264:	f6 00       	.word	0x00f6	; ????
     266:	f7 00       	.word	0x00f7	; ????
     268:	f8 00       	.word	0x00f8	; ????
     26a:	f9 00       	.word	0x00f9	; ????
     26c:	fa 00       	.word	0x00fa	; ????
     26e:	fb 00       	.word	0x00fb	; ????
     270:	07 01       	movw	r0, r14
     272:	06 01       	movw	r0, r12
     274:	05 01       	movw	r0, r10
     276:	04 01       	movw	r0, r8
     278:	03 01       	movw	r0, r6
     27a:	02 01       	movw	r0, r4
     27c:	01 01       	movw	r0, r2
     27e:	00 01       	movw	r0, r0
     280:	ff 00       	.word	0x00ff	; ????
     282:	fe 00       	.word	0x00fe	; ????
     284:	fd 00       	.word	0x00fd	; ????
     286:	fc 00       	.word	0x00fc	; ????
     288:	08 01       	movw	r0, r16
     28a:	09 01       	movw	r0, r18
     28c:	0a 01       	movw	r0, r20
     28e:	0b 01       	movw	r0, r22
     290:	0c 01       	movw	r0, r24
     292:	0d 01       	movw	r0, r26
     294:	0e 01       	movw	r0, r28
     296:	0f 01       	movw	r0, r30
     298:	10 01       	movw	r2, r0
     29a:	11 01       	movw	r2, r2
     29c:	12 01       	movw	r2, r4
     29e:	13 01       	movw	r2, r6
     2a0:	1f 01       	movw	r2, r30
     2a2:	1e 01       	movw	r2, r28
     2a4:	1d 01       	movw	r2, r26
     2a6:	1c 01       	movw	r2, r24
     2a8:	1b 01       	movw	r2, r22
     2aa:	1a 01       	movw	r2, r20
     2ac:	19 01       	movw	r2, r18
     2ae:	18 01       	movw	r2, r16
     2b0:	17 01       	movw	r2, r14
     2b2:	16 01       	movw	r2, r12
     2b4:	15 01       	movw	r2, r10
     2b6:	14 01       	movw	r2, r8
     2b8:	20 01       	movw	r4, r0
     2ba:	21 01       	movw	r4, r2
     2bc:	22 01       	movw	r4, r4
     2be:	23 01       	movw	r4, r6
     2c0:	24 01       	movw	r4, r8
     2c2:	25 01       	movw	r4, r10
     2c4:	26 01       	movw	r4, r12
     2c6:	27 01       	movw	r4, r14
     2c8:	28 01       	movw	r4, r16
     2ca:	29 01       	movw	r4, r18
     2cc:	2a 01       	movw	r4, r20
     2ce:	2b 01       	movw	r4, r22

000002d0 <randomcolor>:
     2d0:	04 00 00 00 07 00 03 00 06 00 02 00 05 00 09 00     ................
     2e0:	08 00 01 00 08 00 09 00 02 00 04 00 00 00 01 00     ................
     2f0:	06 00 07 00 05 00 03 00 08 00 01 00 03 00 02 00     ................
     300:	05 00 07 00 04 00 00 00 09 00 06 00 00 00 05 00     ................
     310:	09 00 08 00 02 00 01 00 07 00 06 00 03 00 04 00     ................

00000320 <randombrick>:
     320:	04 00 00 00 03 00 05 00 01 00 06 00 03 00 01 00     ................
     330:	04 00 03 00 02 00 00 00 06 00 05 00 00 00 05 00     ................
     340:	02 00 06 00 01 00 03 00 04 00 00 00 06 00 01 00     ................
     350:	03 00 05 00 02 00 04 00                             ........

00000358 <__ctors_end>:
     358:	11 24       	eor	r1, r1
     35a:	1f be       	out	0x3f, r1	; 63
     35c:	cf ef       	ldi	r28, 0xFF	; 255
     35e:	d8 e0       	ldi	r29, 0x08	; 8
     360:	de bf       	out	0x3e, r29	; 62
     362:	cd bf       	out	0x3d, r28	; 61

00000364 <__do_copy_data>:
     364:	11 e0       	ldi	r17, 0x01	; 1
     366:	a0 e0       	ldi	r26, 0x00	; 0
     368:	b1 e0       	ldi	r27, 0x01	; 1
     36a:	ec e2       	ldi	r30, 0x2C	; 44
     36c:	f3 e2       	ldi	r31, 0x23	; 35
     36e:	02 c0       	rjmp	.+4      	; 0x374 <__do_copy_data+0x10>
     370:	05 90       	lpm	r0, Z+
     372:	0d 92       	st	X+, r0
     374:	a0 3a       	cpi	r26, 0xA0	; 160
     376:	b1 07       	cpc	r27, r17
     378:	d9 f7       	brne	.-10     	; 0x370 <__do_copy_data+0xc>

0000037a <__do_clear_bss>:
     37a:	27 e0       	ldi	r18, 0x07	; 7
     37c:	a0 ea       	ldi	r26, 0xA0	; 160
     37e:	b1 e0       	ldi	r27, 0x01	; 1
     380:	01 c0       	rjmp	.+2      	; 0x384 <.do_clear_bss_start>

00000382 <.do_clear_bss_loop>:
     382:	1d 92       	st	X+, r1

00000384 <.do_clear_bss_start>:
     384:	ac 34       	cpi	r26, 0x4C	; 76
     386:	b2 07       	cpc	r27, r18
     388:	e1 f7       	brne	.-8      	; 0x382 <.do_clear_bss_loop>
     38a:	0e 94 8f 02 	call	0x51e	; 0x51e <main>
     38e:	0c 94 94 11 	jmp	0x2328	; 0x2328 <_exit>

00000392 <__bad_interrupt>:
     392:	0c 94 00 00 	jmp	0	; 0x0 <__vectors>

00000396 <ws2812_setleds>:
#include <avr/io.h>
#include <util/delay.h>
 
// Setleds for standard RGB 
void inline ws2812_setleds(struct cRGB *ledarray, uint16_t leds)
{
     396:	fc 01       	movw	r30, r24
   ws2812_setleds_pin(ledarray,leds, _BV(ws2812_pin));
}

void inline ws2812_setleds_pin(struct cRGB *ledarray, uint16_t leds, uint8_t pinmask)
{
  ws2812_sendarray_mask((uint8_t*)ledarray,leds+leds+leds,pinmask);
     398:	9b 01       	movw	r18, r22
     39a:	22 0f       	add	r18, r18
     39c:	33 1f       	adc	r19, r19
     39e:	62 0f       	add	r22, r18
     3a0:	73 1f       	adc	r23, r19
void inline ws2812_sendarray_mask(uint8_t *data,uint16_t datlen,uint8_t maskhi)
{
  uint8_t curbyte,ctr,masklo;
  uint8_t sreg_prev;
  
  ws2812_DDRREG |= maskhi; // Enable output
     3a2:	8a b1       	in	r24, 0x0a	; 10
     3a4:	80 62       	ori	r24, 0x20	; 32
     3a6:	8a b9       	out	0x0a, r24	; 10
  
  masklo	=~maskhi&ws2812_PORTREG;
     3a8:	ab b1       	in	r26, 0x0b	; 11
     3aa:	af 7d       	andi	r26, 0xDF	; 223
  maskhi |=        ws2812_PORTREG;
     3ac:	5b b1       	in	r21, 0x0b	; 11
     3ae:	50 62       	ori	r21, 0x20	; 32
  
  sreg_prev=SREG;
     3b0:	bf b7       	in	r27, 0x3f	; 63
  cli();  
     3b2:	f8 94       	cli
     3b4:	10 c0       	rjmp	.+32     	; 0x3d6 <loop51+0x16>

  while (datlen--) {
    curbyte=*data++;
     3b6:	9f 01       	movw	r18, r30
     3b8:	2f 5f       	subi	r18, 0xFF	; 255
     3ba:	3f 4f       	sbci	r19, 0xFF	; 255
     3bc:	40 81       	ld	r20, Z
    
    asm volatile(
     3be:	68 e0       	ldi	r22, 0x08	; 8

000003c0 <loop51>:
     3c0:	5b b9       	out	0x0b, r21	; 11
     3c2:	47 ff       	sbrs	r20, 7
     3c4:	ab b9       	out	0x0b, r26	; 11
     3c6:	44 0f       	add	r20, r20
     3c8:	00 00       	nop
     3ca:	00 c0       	rjmp	.+0      	; 0x3cc <loop51+0xc>
     3cc:	ab b9       	out	0x0b, r26	; 11
     3ce:	6a 95       	dec	r22
     3d0:	b9 f7       	brne	.-18     	; 0x3c0 <loop51>
  maskhi |=        ws2812_PORTREG;
  
  sreg_prev=SREG;
  cli();  

  while (datlen--) {
     3d2:	bc 01       	movw	r22, r24
    curbyte=*data++;
     3d4:	f9 01       	movw	r30, r18
  maskhi |=        ws2812_PORTREG;
  
  sreg_prev=SREG;
  cli();  

  while (datlen--) {
     3d6:	cb 01       	movw	r24, r22
     3d8:	01 97       	sbiw	r24, 0x01	; 1
     3da:	67 2b       	or	r22, r23
     3dc:	61 f7       	brne	.-40     	; 0x3b6 <ws2812_setleds+0x20>
    :	"=&d" (ctr)
    :	"r" (curbyte), "I" (_SFR_IO_ADDR(ws2812_PORTREG)), "r" (maskhi), "r" (masklo)
    );
  }
  
  SREG=sreg_prev;
     3de:	bf bf       	out	0x3f, r27	; 63
	#else
		//round up by default
		__ticks_dc = (uint32_t)(ceil(fabs(__tmp)));
	#endif

	__builtin_avr_delay_cycles(__ticks_dc);
     3e0:	85 e8       	ldi	r24, 0x85	; 133
     3e2:	8a 95       	dec	r24
     3e4:	f1 f7       	brne	.-4      	; 0x3e2 <loop51+0x22>
     3e6:	00 00       	nop
     3e8:	08 95       	ret

000003ea <init>:



void init()
{
	DDRB|=_BV(ws2812_pin);  // (1 << ws2812_pin)
     3ea:	84 b1       	in	r24, 0x04	; 4
     3ec:	80 62       	ori	r24, 0x20	; 32
     3ee:	84 b9       	out	0x04, r24	; 4
	clearTable();
     3f0:	0e 94 a1 07 	call	0xf42	; 0xf42 <clearTable>

	newActiveBrick();
     3f4:	0e 94 11 05 	call	0xa22	; 0xa22 <newActiveBrick>
	menu();
     3f8:	0e 94 bd 07 	call	0xf7a	; 0xf7a <menu>
	sliding_menu();
     3fc:	0e 94 5b 09 	call	0x12b6	; 0x12b6 <sliding_menu>
	#else
		//round up by default
		__ticks_dc = (uint32_t)(ceil(fabs(__tmp)));
	#endif

	__builtin_avr_delay_cycles(__ticks_dc);
     400:	2f e7       	ldi	r18, 0x7F	; 127
     402:	88 e3       	ldi	r24, 0x38	; 56
     404:	91 e0       	ldi	r25, 0x01	; 1
     406:	21 50       	subi	r18, 0x01	; 1
     408:	80 40       	sbci	r24, 0x00	; 0
     40a:	90 40       	sbci	r25, 0x00	; 0
     40c:	e1 f7       	brne	.-8      	; 0x406 <__EEPROM_REGION_LENGTH__+0x6>
     40e:	00 c0       	rjmp	.+0      	; 0x410 <__EEPROM_REGION_LENGTH__+0x10>
     410:	00 00       	nop
	_delay_ms(ws2812_resettime);
	
	
	//Config CTC LED 1Hz
	DDRB |= (1<<DDB1);		// Config PORTB Pin B1 as Output
     412:	84 b1       	in	r24, 0x04	; 4
     414:	82 60       	ori	r24, 0x02	; 2
     416:	84 b9       	out	0x04, r24	; 4
	//DDRB = 0b00000010;	// Another way of doing the previous line

	PORTB = 0b00000010;		// Pin B1 ON
     418:	82 e0       	ldi	r24, 0x02	; 2
     41a:	85 b9       	out	0x05, r24	; 5
	//PORTD |= (1<<PORTD5);

	OCR0A = 39;				// OCR0A = (T * fclk_IO / Prescaler) - 1 ~= 39; T = 0.005s = 5ms; fclk_IO = 8000000Hz = 8MHz; Prescaler = 1024
     41c:	97 e2       	ldi	r25, 0x27	; 39
     41e:	97 bd       	out	0x27, r25	; 39

	TCCR0A = 0b00000010;	// TCCR0A - CTC in Normal mode
     420:	84 bd       	out	0x24, r24	; 36
	//TCCR0A |= (1<<WGM01);

	TCCR0B = 0b11000101;	// TCCR0B - Force Output Compare A & B; Prescaler 1024
     422:	95 ec       	ldi	r25, 0xC5	; 197
     424:	95 bd       	out	0x25, r25	; 37
	//TCCR0B |= (1<<FOC0A)|(1<<FOC0B)|(1<<CS02)|(1<<CS00);

	TIMSK0 |= (1<<OCIE0A);	// TIMSK0 - Output Compare Match A Interrupt Enabled
     426:	ee e6       	ldi	r30, 0x6E	; 110
     428:	f0 e0       	ldi	r31, 0x00	; 0
     42a:	90 81       	ld	r25, Z
     42c:	92 60       	ori	r25, 0x02	; 2
     42e:	90 83       	st	Z, r25
	//TIMSK0 = 0b00000010;
	
	
	//Config Bluetooth
	UBRR0H = 0;
     430:	10 92 c5 00 	sts	0x00C5, r1	; 0x8000c5 <__TEXT_REGION_LENGTH__+0x7f80c5>
	UBRR0L = 103;									// Set baud rate to 9600 with f = 8MHz
     434:	97 e6       	ldi	r25, 0x67	; 103
     436:	90 93 c4 00 	sts	0x00C4, r25	; 0x8000c4 <__TEXT_REGION_LENGTH__+0x7f80c4>
	UCSR0A = (1<<U2X0);								//Asynchronous Double speed
     43a:	80 93 c0 00 	sts	0x00C0, r24	; 0x8000c0 <__TEXT_REGION_LENGTH__+0x7f80c0>
	UCSR0B |= (1<<RXCIE0)|(1<<RXEN0)|(1<<TXEN0);	// Interrupt enable, Enable receive and transmit
     43e:	e1 ec       	ldi	r30, 0xC1	; 193
     440:	f0 e0       	ldi	r31, 0x00	; 0
     442:	80 81       	ld	r24, Z
     444:	88 69       	ori	r24, 0x98	; 152
     446:	80 83       	st	Z, r24
	UCSR0C |= (1<<UCSZ01)|(1<<UCSZ00);				//8-bit configuration
     448:	e2 ec       	ldi	r30, 0xC2	; 194
     44a:	f0 e0       	ldi	r31, 0x00	; 0
     44c:	80 81       	ld	r24, Z
     44e:	86 60       	ori	r24, 0x06	; 6
     450:	80 83       	st	Z, r24
	
	sei();	
     452:	78 94       	sei
     454:	08 95       	ret

00000456 <__vector_18>:
}

ISR(USART_RX_vect)
{
     456:	1f 92       	push	r1
     458:	0f 92       	push	r0
     45a:	0f b6       	in	r0, 0x3f	; 63
     45c:	0f 92       	push	r0
     45e:	11 24       	eor	r1, r1
     460:	8f 93       	push	r24
     462:	af 93       	push	r26
     464:	bf 93       	push	r27
     466:	ef 93       	push	r30
     468:	ff 93       	push	r31
	rxUSART.status = UCSR0A;
     46a:	80 91 c0 00 	lds	r24, 0x00C0	; 0x8000c0 <__TEXT_REGION_LENGTH__+0x7f80c0>
     46e:	e0 ea       	ldi	r30, 0xA0	; 160
     470:	f1 e0       	ldi	r31, 0x01	; 1
     472:	81 83       	std	Z+1, r24	; 0x01
	
	if ( rxUSART.status & ((1<<FE0) | (1<<DOR0) | (1>>UPE0)))
     474:	81 81       	ldd	r24, Z+1	; 0x01
     476:	88 71       	andi	r24, 0x18	; 24
     478:	29 f0       	breq	.+10     	; 0x484 <__vector_18+0x2e>
	rxUSART.error = 1;
     47a:	e2 ea       	ldi	r30, 0xA2	; 162
     47c:	f1 e0       	ldi	r31, 0x01	; 1
     47e:	80 81       	ld	r24, Z
     480:	82 60       	ori	r24, 0x02	; 2
     482:	80 83       	st	Z, r24
	
	rxUSART.receiver_buffer = UDR0;
     484:	80 91 c6 00 	lds	r24, 0x00C6	; 0x8000c6 <__TEXT_REGION_LENGTH__+0x7f80c6>
     488:	e0 ea       	ldi	r30, 0xA0	; 160
     48a:	f1 e0       	ldi	r31, 0x01	; 1
     48c:	80 83       	st	Z, r24
	rxUSART.receive = 1;
     48e:	a2 ea       	ldi	r26, 0xA2	; 162
     490:	b1 e0       	ldi	r27, 0x01	; 1
     492:	8c 91       	ld	r24, X
     494:	81 60       	ori	r24, 0x01	; 1
     496:	8c 93       	st	X, r24
	
	button = rxUSART.receiver_buffer;
     498:	80 81       	ld	r24, Z
     49a:	80 93 b8 01 	sts	0x01B8, r24	; 0x8001b8 <button>
}
     49e:	ff 91       	pop	r31
     4a0:	ef 91       	pop	r30
     4a2:	bf 91       	pop	r27
     4a4:	af 91       	pop	r26
     4a6:	8f 91       	pop	r24
     4a8:	0f 90       	pop	r0
     4aa:	0f be       	out	0x3f, r0	; 63
     4ac:	0f 90       	pop	r0
     4ae:	1f 90       	pop	r1
     4b0:	18 95       	reti

000004b2 <__vector_14>:


ISR(TIMER0_COMPA_vect) {	// Timer 0
     4b2:	1f 92       	push	r1
     4b4:	0f 92       	push	r0
     4b6:	0f b6       	in	r0, 0x3f	; 63
     4b8:	0f 92       	push	r0
     4ba:	11 24       	eor	r1, r1
     4bc:	8f 93       	push	r24
     4be:	9f 93       	push	r25
	count_1000++;
     4c0:	80 91 a3 01 	lds	r24, 0x01A3	; 0x8001a3 <count_1000>
     4c4:	90 91 a4 01 	lds	r25, 0x01A4	; 0x8001a4 <count_1000+0x1>
     4c8:	01 96       	adiw	r24, 0x01	; 1
     4ca:	90 93 a4 01 	sts	0x01A4, r25	; 0x8001a4 <count_1000+0x1>
     4ce:	80 93 a3 01 	sts	0x01A3, r24	; 0x8001a3 <count_1000>

	if (count_1000 == 100)	// When Timer 0 counts to 100, time = 0.005 * 100 = 0.5s = 500ms
     4d2:	80 91 a3 01 	lds	r24, 0x01A3	; 0x8001a3 <count_1000>
     4d6:	90 91 a4 01 	lds	r25, 0x01A4	; 0x8001a4 <count_1000+0x1>
     4da:	84 36       	cpi	r24, 0x64	; 100
     4dc:	91 05       	cpc	r25, r1
     4de:	c1 f4       	brne	.+48     	; 0x510 <__vector_14+0x5e>
	{
		count_1000 = 0;		// Resets Timer
     4e0:	10 92 a4 01 	sts	0x01A4, r1	; 0x8001a4 <count_1000+0x1>
     4e4:	10 92 a3 01 	sts	0x01A3, r1	; 0x8001a3 <count_1000>

		if (flag_LED == 1)	// If LED ON
     4e8:	80 91 00 01 	lds	r24, 0x0100	; 0x800100 <__DATA_REGION_ORIGIN__>
     4ec:	90 91 01 01 	lds	r25, 0x0101	; 0x800101 <__DATA_REGION_ORIGIN__+0x1>
     4f0:	01 97       	sbiw	r24, 0x01	; 1
     4f2:	31 f4       	brne	.+12     	; 0x500 <__vector_14+0x4e>
		{
			PORTB = 0b00000000;
     4f4:	15 b8       	out	0x05, r1	; 5
			flag_LED = 0;	// Turns LED OFF
     4f6:	10 92 01 01 	sts	0x0101, r1	; 0x800101 <__DATA_REGION_ORIGIN__+0x1>
     4fa:	10 92 00 01 	sts	0x0100, r1	; 0x800100 <__DATA_REGION_ORIGIN__>
     4fe:	08 c0       	rjmp	.+16     	; 0x510 <__vector_14+0x5e>
		}
		else				// If LED OFF
		{
			PORTB = 0b00000010;
     500:	82 e0       	ldi	r24, 0x02	; 2
     502:	85 b9       	out	0x05, r24	; 5
			flag_LED = 1;	// Turns LED ON
     504:	81 e0       	ldi	r24, 0x01	; 1
     506:	90 e0       	ldi	r25, 0x00	; 0
     508:	90 93 01 01 	sts	0x0101, r25	; 0x800101 <__DATA_REGION_ORIGIN__+0x1>
     50c:	80 93 00 01 	sts	0x0100, r24	; 0x800100 <__DATA_REGION_ORIGIN__>
		}
	}
}
     510:	9f 91       	pop	r25
     512:	8f 91       	pop	r24
     514:	0f 90       	pop	r0
     516:	0f be       	out	0x3f, r0	; 63
     518:	0f 90       	pop	r0
     51a:	1f 90       	pop	r1
     51c:	18 95       	reti

0000051e <main>:

int main(void)
{	
	while(1)
	{
		init();
     51e:	0e 94 f5 01 	call	0x3ea	; 0x3ea <init>
		//Awaits for a button to be pressed
		while (button != 'a' && button != 's' && button != 'd' && button != 'j'  && button != 'k'  && button != 'l' );
     522:	80 91 b8 01 	lds	r24, 0x01B8	; 0x8001b8 <button>
     526:	81 36       	cpi	r24, 0x61	; 97
     528:	a1 f0       	breq	.+40     	; 0x552 <main+0x34>
     52a:	80 91 b8 01 	lds	r24, 0x01B8	; 0x8001b8 <button>
     52e:	83 37       	cpi	r24, 0x73	; 115
     530:	81 f0       	breq	.+32     	; 0x552 <main+0x34>
     532:	80 91 b8 01 	lds	r24, 0x01B8	; 0x8001b8 <button>
     536:	84 36       	cpi	r24, 0x64	; 100
     538:	61 f0       	breq	.+24     	; 0x552 <main+0x34>
     53a:	80 91 b8 01 	lds	r24, 0x01B8	; 0x8001b8 <button>
     53e:	8a 36       	cpi	r24, 0x6A	; 106
     540:	41 f0       	breq	.+16     	; 0x552 <main+0x34>
     542:	80 91 b8 01 	lds	r24, 0x01B8	; 0x8001b8 <button>
     546:	8b 36       	cpi	r24, 0x6B	; 107
     548:	21 f0       	breq	.+8      	; 0x552 <main+0x34>
     54a:	80 91 b8 01 	lds	r24, 0x01B8	; 0x8001b8 <button>
     54e:	8c 36       	cpi	r24, 0x6C	; 108
     550:	41 f7       	brne	.-48     	; 0x522 <main+0x4>
		button = ' ';
     552:	80 e2       	ldi	r24, 0x20	; 32
     554:	80 93 b8 01 	sts	0x01B8, r24	; 0x8001b8 <button>
			
		clearTable();
     558:	0e 94 a1 07 	call	0xf42	; 0xf42 <clearTable>
		newActiveBrick();
     55c:	0e 94 11 05 	call	0xa22	; 0xa22 <newActiveBrick>
		showNextPiece();
     560:	0e 94 bd 03 	call	0x77a	; 0x77a <showNextPiece>
		while(1)
		{
			fallActiveBrick();
     564:	0e 94 c5 08 	call	0x118a	; 0x118a <fallActiveBrick>
			switch (button)
     568:	80 91 b8 01 	lds	r24, 0x01B8	; 0x8001b8 <button>
     56c:	84 36       	cpi	r24, 0x64	; 100
     56e:	89 f0       	breq	.+34     	; 0x592 <main+0x74>
     570:	28 f4       	brcc	.+10     	; 0x57c <main+0x5e>
     572:	85 30       	cpi	r24, 0x05	; 5
     574:	e1 f0       	breq	.+56     	; 0x5ae <main+0x90>
     576:	81 36       	cpi	r24, 0x61	; 97
     578:	41 f0       	breq	.+16     	; 0x58a <main+0x6c>
     57a:	1d c0       	rjmp	.+58     	; 0x5b6 <main+0x98>
     57c:	8b 36       	cpi	r24, 0x6B	; 107
     57e:	a1 f0       	breq	.+40     	; 0x5a8 <main+0x8a>
     580:	83 37       	cpi	r24, 0x73	; 115
     582:	59 f0       	breq	.+22     	; 0x59a <main+0x7c>
     584:	8a 36       	cpi	r24, 0x6A	; 106
     586:	b9 f4       	brne	.+46     	; 0x5b6 <main+0x98>
     588:	0c c0       	rjmp	.+24     	; 0x5a2 <main+0x84>
			{
				// Left
				case 'a':
				shiftActiveBrick('l');
     58a:	8c e6       	ldi	r24, 0x6C	; 108
     58c:	0e 94 95 06 	call	0xd2a	; 0xd2a <shiftActiveBrick>
				break;
     590:	12 c0       	rjmp	.+36     	; 0x5b6 <main+0x98>

				// Right
				case 'd':
				shiftActiveBrick('r');
     592:	82 e7       	ldi	r24, 0x72	; 114
     594:	0e 94 95 06 	call	0xd2a	; 0xd2a <shiftActiveBrick>
				break;
     598:	0e c0       	rjmp	.+28     	; 0x5b6 <main+0x98>
			
				// Down
				case 's':
				shiftActiveBrick('d');
     59a:	84 e6       	ldi	r24, 0x64	; 100
     59c:	0e 94 95 06 	call	0xd2a	; 0xd2a <shiftActiveBrick>
				break;
     5a0:	0a c0       	rjmp	.+20     	; 0x5b6 <main+0x98>
			
				// Rotate
				case 'j':
				rotateActiveBrick();
     5a2:	0e 94 c0 05 	call	0xb80	; 0xb80 <rotateActiveBrick>
				break;
     5a6:	07 c0       	rjmp	.+14     	; 0x5b6 <main+0x98>
			
				case 'k':
				forcedown();
     5a8:	0e 94 3a 09 	call	0x1274	; 0x1274 <forcedown>
				break;
     5ac:	04 c0       	rjmp	.+8      	; 0x5b6 <main+0x98>
			
				// Pause
				case 5:
				pause = 0;
     5ae:	10 92 9e 01 	sts	0x019E, r1	; 0x80019e <pause>
				Pause();
     5b2:	0e 94 f0 02 	call	0x5e0	; 0x5e0 <Pause>
				break;
			}
			checkFullLines();
     5b6:	0e 94 32 07 	call	0xe64	; 0xe64 <checkFullLines>
			button = ' ';
     5ba:	80 e2       	ldi	r24, 0x20	; 32
     5bc:	80 93 b8 01 	sts	0x01B8, r24	; 0x8001b8 <button>
     5c0:	2f e7       	ldi	r18, 0x7F	; 127
     5c2:	88 e3       	ldi	r24, 0x38	; 56
     5c4:	91 e0       	ldi	r25, 0x01	; 1
     5c6:	21 50       	subi	r18, 0x01	; 1
     5c8:	80 40       	sbci	r24, 0x00	; 0
     5ca:	90 40       	sbci	r25, 0x00	; 0
     5cc:	e1 f7       	brne	.-8      	; 0x5c6 <main+0xa8>
     5ce:	00 c0       	rjmp	.+0      	; 0x5d0 <main+0xb2>
     5d0:	00 00       	nop
			_delay_ms(50);
			if (tetrisGameOver) break;
     5d2:	80 91 aa 01 	lds	r24, 0x01AA	; 0x8001aa <tetrisGameOver>
     5d6:	88 23       	and	r24, r24
     5d8:	29 f2       	breq	.-118    	; 0x564 <main+0x46>
		}
		tetrisGameOver = 0;
     5da:	10 92 aa 01 	sts	0x01AA, r1	; 0x8001aa <tetrisGameOver>
	}
     5de:	9f cf       	rjmp	.-194    	; 0x51e <main>

000005e0 <Pause>:
	if ((led.r == 0) && (led.g == 0) && (led.b == 0))
	{
		return 1;
	}
	return 0;
}
     5e0:	80 91 9e 01 	lds	r24, 0x019E	; 0x80019e <pause>
     5e4:	81 11       	cpse	r24, r1
     5e6:	fc cf       	rjmp	.-8      	; 0x5e0 <Pause>
     5e8:	08 95       	ret

000005ea <addActiveBrickToField>:
     5ea:	1f 93       	push	r17
     5ec:	cf 93       	push	r28
     5ee:	df 93       	push	r29
     5f0:	b0 e0       	ldi	r27, 0x00	; 0
     5f2:	40 c0       	rjmp	.+128    	; 0x674 <addActiveBrickToField+0x8a>
     5f4:	ee e3       	ldi	r30, 0x3E	; 62
     5f6:	f5 e0       	ldi	r31, 0x05	; 5
     5f8:	81 81       	ldd	r24, Z+1	; 0x01
     5fa:	8a 0f       	add	r24, r26
     5fc:	22 81       	ldd	r18, Z+2	; 0x02
     5fe:	2b 0f       	add	r18, r27
     600:	8c 30       	cpi	r24, 0x0C	; 12
     602:	90 f5       	brcc	.+100    	; 0x668 <addActiveBrickToField+0x7e>
     604:	24 31       	cpi	r18, 0x14	; 20
     606:	80 f5       	brcc	.+96     	; 0x668 <addActiveBrickToField+0x7e>
     608:	4b 2f       	mov	r20, r27
     60a:	50 e0       	ldi	r21, 0x00	; 0
     60c:	6a 2f       	mov	r22, r26
     60e:	70 e0       	ldi	r23, 0x00	; 0
     610:	fa 01       	movw	r30, r20
     612:	ee 0f       	add	r30, r30
     614:	ff 1f       	adc	r31, r31
     616:	ee 0f       	add	r30, r30
     618:	ff 1f       	adc	r31, r31
     61a:	e2 5c       	subi	r30, 0xC2	; 194
     61c:	fa 4f       	sbci	r31, 0xFA	; 250
     61e:	e6 0f       	add	r30, r22
     620:	f7 1f       	adc	r31, r23
     622:	15 81       	ldd	r17, Z+5	; 0x05
     624:	11 23       	and	r17, r17
     626:	01 f1       	breq	.+64     	; 0x668 <addActiveBrickToField+0x7e>
     628:	30 e0       	ldi	r19, 0x00	; 0
     62a:	90 e0       	ldi	r25, 0x00	; 0
     62c:	e9 01       	movw	r28, r18
     62e:	cc 0f       	add	r28, r28
     630:	dd 1f       	adc	r29, r29
     632:	fe 01       	movw	r30, r28
     634:	e2 0f       	add	r30, r18
     636:	f3 1f       	adc	r31, r19
     638:	ee 0f       	add	r30, r30
     63a:	ff 1f       	adc	r31, r31
     63c:	ee 0f       	add	r30, r30
     63e:	ff 1f       	adc	r31, r31
     640:	e4 59       	subi	r30, 0x94	; 148
     642:	fa 4f       	sbci	r31, 0xFA	; 250
     644:	e8 0f       	add	r30, r24
     646:	f9 1f       	adc	r31, r25
     648:	10 83       	st	Z, r17
     64a:	10 91 53 05 	lds	r17, 0x0553	; 0x800553 <activeBrick+0x15>
     64e:	e0 51       	subi	r30, 0x10	; 16
     650:	ff 4f       	sbci	r31, 0xFF	; 255
     652:	10 83       	st	Z, r17
     654:	44 0f       	add	r20, r20
     656:	55 1f       	adc	r21, r21
     658:	44 0f       	add	r20, r20
     65a:	55 1f       	adc	r21, r21
     65c:	42 5c       	subi	r20, 0xC2	; 194
     65e:	5a 4f       	sbci	r21, 0xFA	; 250
     660:	fa 01       	movw	r30, r20
     662:	e6 0f       	add	r30, r22
     664:	f7 1f       	adc	r31, r23
     666:	15 82       	std	Z+5, r1	; 0x05
     668:	af 5f       	subi	r26, 0xFF	; 255
     66a:	01 c0       	rjmp	.+2      	; 0x66e <addActiveBrickToField+0x84>
     66c:	a0 e0       	ldi	r26, 0x00	; 0
     66e:	a4 30       	cpi	r26, 0x04	; 4
     670:	08 f2       	brcs	.-126    	; 0x5f4 <addActiveBrickToField+0xa>
     672:	bf 5f       	subi	r27, 0xFF	; 255
     674:	b4 30       	cpi	r27, 0x04	; 4
     676:	d0 f3       	brcs	.-12     	; 0x66c <addActiveBrickToField+0x82>
     678:	85 e8       	ldi	r24, 0x85	; 133
     67a:	8a 95       	dec	r24
     67c:	f1 f7       	brne	.-4      	; 0x67a <addActiveBrickToField+0x90>
     67e:	00 00       	nop
     680:	df 91       	pop	r29
     682:	cf 91       	pop	r28
     684:	1f 91       	pop	r17
     686:	08 95       	ret

00000688 <checkSidesCollision>:
     688:	dc 01       	movw	r26, r24
     68a:	30 e0       	ldi	r19, 0x00	; 0
     68c:	19 c0       	rjmp	.+50     	; 0x6c0 <checkSidesCollision+0x38>
     68e:	e3 2f       	mov	r30, r19
     690:	f0 e0       	ldi	r31, 0x00	; 0
     692:	ee 0f       	add	r30, r30
     694:	ff 1f       	adc	r31, r31
     696:	ee 0f       	add	r30, r30
     698:	ff 1f       	adc	r31, r31
     69a:	ea 0f       	add	r30, r26
     69c:	fb 1f       	adc	r31, r27
     69e:	e9 0f       	add	r30, r25
     6a0:	f1 1d       	adc	r31, r1
     6a2:	25 81       	ldd	r18, Z+5	; 0x05
     6a4:	22 23       	and	r18, r18
     6a6:	31 f0       	breq	.+12     	; 0x6b4 <checkSidesCollision+0x2c>
     6a8:	11 96       	adiw	r26, 0x01	; 1
     6aa:	2c 91       	ld	r18, X
     6ac:	11 97       	sbiw	r26, 0x01	; 1
     6ae:	29 0f       	add	r18, r25
     6b0:	2c 30       	cpi	r18, 0x0C	; 12
     6b2:	58 f4       	brcc	.+22     	; 0x6ca <checkSidesCollision+0x42>
     6b4:	9f 5f       	subi	r25, 0xFF	; 255
     6b6:	01 c0       	rjmp	.+2      	; 0x6ba <checkSidesCollision+0x32>
     6b8:	90 e0       	ldi	r25, 0x00	; 0
     6ba:	94 30       	cpi	r25, 0x04	; 4
     6bc:	40 f3       	brcs	.-48     	; 0x68e <checkSidesCollision+0x6>
     6be:	3f 5f       	subi	r19, 0xFF	; 255
     6c0:	34 30       	cpi	r19, 0x04	; 4
     6c2:	d0 f3       	brcs	.-12     	; 0x6b8 <checkSidesCollision+0x30>
     6c4:	80 e0       	ldi	r24, 0x00	; 0
     6c6:	90 e0       	ldi	r25, 0x00	; 0
     6c8:	08 95       	ret
     6ca:	81 e0       	ldi	r24, 0x01	; 1
     6cc:	90 e0       	ldi	r25, 0x00	; 0
     6ce:	08 95       	ret

000006d0 <checkFieldCollision>:
     6d0:	dc 01       	movw	r26, r24
     6d2:	40 e0       	ldi	r20, 0x00	; 0
     6d4:	2c c0       	rjmp	.+88     	; 0x72e <checkFieldCollision+0x5e>
     6d6:	11 96       	adiw	r26, 0x01	; 1
     6d8:	9c 91       	ld	r25, X
     6da:	11 97       	sbiw	r26, 0x01	; 1
     6dc:	98 0f       	add	r25, r24
     6de:	12 96       	adiw	r26, 0x02	; 2
     6e0:	2c 91       	ld	r18, X
     6e2:	12 97       	sbiw	r26, 0x02	; 2
     6e4:	24 0f       	add	r18, r20
     6e6:	e4 2f       	mov	r30, r20
     6e8:	f0 e0       	ldi	r31, 0x00	; 0
     6ea:	ee 0f       	add	r30, r30
     6ec:	ff 1f       	adc	r31, r31
     6ee:	ee 0f       	add	r30, r30
     6f0:	ff 1f       	adc	r31, r31
     6f2:	ea 0f       	add	r30, r26
     6f4:	fb 1f       	adc	r31, r27
     6f6:	e8 0f       	add	r30, r24
     6f8:	f1 1d       	adc	r31, r1
     6fa:	35 81       	ldd	r19, Z+5	; 0x05
     6fc:	31 30       	cpi	r19, 0x01	; 1
     6fe:	89 f4       	brne	.+34     	; 0x722 <checkFieldCollision+0x52>
     700:	30 e0       	ldi	r19, 0x00	; 0
     702:	f9 01       	movw	r30, r18
     704:	ee 0f       	add	r30, r30
     706:	ff 1f       	adc	r31, r31
     708:	e2 0f       	add	r30, r18
     70a:	f3 1f       	adc	r31, r19
     70c:	ee 0f       	add	r30, r30
     70e:	ff 1f       	adc	r31, r31
     710:	ee 0f       	add	r30, r30
     712:	ff 1f       	adc	r31, r31
     714:	e4 59       	subi	r30, 0x94	; 148
     716:	fa 4f       	sbci	r31, 0xFA	; 250
     718:	e9 0f       	add	r30, r25
     71a:	f1 1d       	adc	r31, r1
     71c:	90 81       	ld	r25, Z
     71e:	91 30       	cpi	r25, 0x01	; 1
     720:	59 f0       	breq	.+22     	; 0x738 <checkFieldCollision+0x68>
     722:	8f 5f       	subi	r24, 0xFF	; 255
     724:	01 c0       	rjmp	.+2      	; 0x728 <checkFieldCollision+0x58>
     726:	80 e0       	ldi	r24, 0x00	; 0
     728:	84 30       	cpi	r24, 0x04	; 4
     72a:	a8 f2       	brcs	.-86     	; 0x6d6 <checkFieldCollision+0x6>
     72c:	4f 5f       	subi	r20, 0xFF	; 255
     72e:	44 30       	cpi	r20, 0x04	; 4
     730:	d0 f3       	brcs	.-12     	; 0x726 <checkFieldCollision+0x56>
     732:	80 e0       	ldi	r24, 0x00	; 0
     734:	90 e0       	ldi	r25, 0x00	; 0
     736:	08 95       	ret
     738:	81 e0       	ldi	r24, 0x01	; 1
     73a:	90 e0       	ldi	r25, 0x00	; 0
     73c:	08 95       	ret

0000073e <clearNext>:
     73e:	27 e0       	ldi	r18, 0x07	; 7
     740:	30 e0       	ldi	r19, 0x00	; 0
     742:	17 c0       	rjmp	.+46     	; 0x772 <clearNext+0x34>
     744:	fc 01       	movw	r30, r24
     746:	ee 0f       	add	r30, r30
     748:	ff 1f       	adc	r31, r31
     74a:	e8 0f       	add	r30, r24
     74c:	f9 1f       	adc	r31, r25
     74e:	ee 0f       	add	r30, r30
     750:	ff 1f       	adc	r31, r31
     752:	ee 0f       	add	r30, r30
     754:	ff 1f       	adc	r31, r31
     756:	e4 59       	subi	r30, 0x94	; 148
     758:	fa 4f       	sbci	r31, 0xFA	; 250
     75a:	e2 0f       	add	r30, r18
     75c:	f3 1f       	adc	r31, r19
     75e:	10 82       	st	Z, r1
     760:	01 96       	adiw	r24, 0x01	; 1
     762:	02 c0       	rjmp	.+4      	; 0x768 <clearNext+0x2a>
     764:	84 e1       	ldi	r24, 0x14	; 20
     766:	90 e0       	ldi	r25, 0x00	; 0
     768:	88 31       	cpi	r24, 0x18	; 24
     76a:	91 05       	cpc	r25, r1
     76c:	5c f3       	brlt	.-42     	; 0x744 <clearNext+0x6>
     76e:	2f 5f       	subi	r18, 0xFF	; 255
     770:	3f 4f       	sbci	r19, 0xFF	; 255
     772:	2c 30       	cpi	r18, 0x0C	; 12
     774:	31 05       	cpc	r19, r1
     776:	b4 f3       	brlt	.-20     	; 0x764 <clearNext+0x26>
     778:	08 95       	ret

0000077a <showNextPiece>:
     77a:	cf 93       	push	r28
     77c:	df 93       	push	r29
     77e:	e0 91 ad 01 	lds	r30, 0x01AD	; 0x8001ad <random6>
     782:	f0 e0       	ldi	r31, 0x00	; 0
     784:	ee 0f       	add	r30, r30
     786:	ff 1f       	adc	r31, r31
     788:	e0 5e       	subi	r30, 0xE0	; 224
     78a:	fc 4f       	sbci	r31, 0xFC	; 252
     78c:	64 91       	lpm	r22, Z
     78e:	60 93 a9 01 	sts	0x01A9, r22	; 0x8001a9 <selectedBrick>
     792:	e0 91 ac 01 	lds	r30, 0x01AC	; 0x8001ac <random9>
     796:	f0 e0       	ldi	r31, 0x00	; 0
     798:	ee 0f       	add	r30, r30
     79a:	ff 1f       	adc	r31, r31
     79c:	e0 53       	subi	r30, 0x30	; 48
     79e:	fd 4f       	sbci	r31, 0xFD	; 253
     7a0:	e4 91       	lpm	r30, Z
     7a2:	e0 93 a8 01 	sts	0x01A8, r30	; 0x8001a8 <selectedColor>
     7a6:	70 e0       	ldi	r23, 0x00	; 0
     7a8:	db 01       	movw	r26, r22
     7aa:	aa 0f       	add	r26, r26
     7ac:	bb 1f       	adc	r27, r27
     7ae:	cd 01       	movw	r24, r26
     7b0:	88 0f       	add	r24, r24
     7b2:	99 1f       	adc	r25, r25
     7b4:	88 0f       	add	r24, r24
     7b6:	99 1f       	adc	r25, r25
     7b8:	88 0f       	add	r24, r24
     7ba:	99 1f       	adc	r25, r25
     7bc:	a8 0f       	add	r26, r24
     7be:	b9 1f       	adc	r27, r25
     7c0:	a0 5e       	subi	r26, 0xE0	; 224
     7c2:	be 4f       	sbci	r27, 0xFE	; 254
     7c4:	11 96       	adiw	r26, 0x01	; 1
     7c6:	8c 91       	ld	r24, X
     7c8:	11 97       	sbiw	r26, 0x01	; 1
     7ca:	ce e3       	ldi	r28, 0x3E	; 62
     7cc:	d5 e0       	ldi	r29, 0x05	; 5
     7ce:	8c 83       	std	Y+4, r24	; 0x04
     7d0:	8c 91       	ld	r24, X
     7d2:	8b 83       	std	Y+3, r24	; 0x03
     7d4:	ed 8b       	std	Y+21, r30	; 0x15
     7d6:	84 e1       	ldi	r24, 0x14	; 20
     7d8:	8a 83       	std	Y+2, r24	; 0x02
     7da:	89 e0       	ldi	r24, 0x09	; 9
     7dc:	89 83       	std	Y+1, r24	; 0x01
     7de:	b0 e0       	ldi	r27, 0x00	; 0
     7e0:	28 c0       	rjmp	.+80     	; 0x832 <__DATA_REGION_LENGTH__+0x32>
     7e2:	4a 2f       	mov	r20, r26
     7e4:	50 e0       	ldi	r21, 0x00	; 0
     7e6:	2b 2f       	mov	r18, r27
     7e8:	30 e0       	ldi	r19, 0x00	; 0
     7ea:	44 0f       	add	r20, r20
     7ec:	55 1f       	adc	r21, r21
     7ee:	44 0f       	add	r20, r20
     7f0:	55 1f       	adc	r21, r21
     7f2:	fb 01       	movw	r30, r22
     7f4:	ee 0f       	add	r30, r30
     7f6:	ff 1f       	adc	r31, r31
     7f8:	cf 01       	movw	r24, r30
     7fa:	88 0f       	add	r24, r24
     7fc:	99 1f       	adc	r25, r25
     7fe:	88 0f       	add	r24, r24
     800:	99 1f       	adc	r25, r25
     802:	88 0f       	add	r24, r24
     804:	99 1f       	adc	r25, r25
     806:	e8 0f       	add	r30, r24
     808:	f9 1f       	adc	r31, r25
     80a:	e4 0f       	add	r30, r20
     80c:	f5 1f       	adc	r31, r21
     80e:	e0 5e       	subi	r30, 0xE0	; 224
     810:	fe 4f       	sbci	r31, 0xFE	; 254
     812:	c9 01       	movw	r24, r18
     814:	e8 0f       	add	r30, r24
     816:	f9 1f       	adc	r31, r25
     818:	22 81       	ldd	r18, Z+2	; 0x02
     81a:	42 5c       	subi	r20, 0xC2	; 194
     81c:	5a 4f       	sbci	r21, 0xFA	; 250
     81e:	fa 01       	movw	r30, r20
     820:	e8 0f       	add	r30, r24
     822:	f9 1f       	adc	r31, r25
     824:	25 83       	std	Z+5, r18	; 0x05
     826:	af 5f       	subi	r26, 0xFF	; 255
     828:	01 c0       	rjmp	.+2      	; 0x82c <__DATA_REGION_LENGTH__+0x2c>
     82a:	a0 e0       	ldi	r26, 0x00	; 0
     82c:	a4 30       	cpi	r26, 0x04	; 4
     82e:	c8 f2       	brcs	.-78     	; 0x7e2 <showNextPiece+0x68>
     830:	bf 5f       	subi	r27, 0xFF	; 255
     832:	b4 30       	cpi	r27, 0x04	; 4
     834:	d0 f3       	brcs	.-12     	; 0x82a <__DATA_REGION_LENGTH__+0x2a>
     836:	0e 94 f5 02 	call	0x5ea	; 0x5ea <addActiveBrickToField>
     83a:	85 e8       	ldi	r24, 0x85	; 133
     83c:	8a 95       	dec	r24
     83e:	f1 f7       	brne	.-4      	; 0x83c <__DATA_REGION_LENGTH__+0x3c>
     840:	00 00       	nop
     842:	df 91       	pop	r29
     844:	cf 91       	pop	r28
     846:	08 95       	ret

00000848 <printField>:
     848:	cf 92       	push	r12
     84a:	df 92       	push	r13
     84c:	ef 92       	push	r14
     84e:	40 e0       	ldi	r20, 0x00	; 0
     850:	50 e0       	ldi	r21, 0x00	; 0
     852:	d6 c0       	rjmp	.+428    	; 0xa00 <__stack+0x101>
     854:	20 91 3e 05 	lds	r18, 0x053E	; 0x80053e <activeBrick>
     858:	22 23       	and	r18, r18
     85a:	59 f1       	breq	.+86     	; 0x8b2 <printField+0x6a>
     85c:	20 91 3f 05 	lds	r18, 0x053F	; 0x80053f <activeBrick+0x1>
     860:	30 e0       	ldi	r19, 0x00	; 0
     862:	42 17       	cp	r20, r18
     864:	53 07       	cpc	r21, r19
     866:	3c f1       	brlt	.+78     	; 0x8b6 <printField+0x6e>
     868:	60 91 42 05 	lds	r22, 0x0542	; 0x800542 <activeBrick+0x4>
     86c:	70 e0       	ldi	r23, 0x00	; 0
     86e:	f9 01       	movw	r30, r18
     870:	e6 0f       	add	r30, r22
     872:	f7 1f       	adc	r31, r23
     874:	4e 17       	cp	r20, r30
     876:	5f 07       	cpc	r21, r31
     878:	04 f5       	brge	.+64     	; 0x8ba <printField+0x72>
     87a:	e0 91 40 05 	lds	r30, 0x0540	; 0x800540 <activeBrick+0x2>
     87e:	f0 e0       	ldi	r31, 0x00	; 0
     880:	8e 17       	cp	r24, r30
     882:	9f 07       	cpc	r25, r31
     884:	e4 f0       	brlt	.+56     	; 0x8be <printField+0x76>
     886:	6e 0f       	add	r22, r30
     888:	7f 1f       	adc	r23, r31
     88a:	86 17       	cp	r24, r22
     88c:	97 07       	cpc	r25, r23
     88e:	cc f4       	brge	.+50     	; 0x8c2 <printField+0x7a>
     890:	bc 01       	movw	r22, r24
     892:	6e 1b       	sub	r22, r30
     894:	7f 0b       	sbc	r23, r31
     896:	fa 01       	movw	r30, r20
     898:	e2 1b       	sub	r30, r18
     89a:	f3 0b       	sbc	r31, r19
     89c:	9b 01       	movw	r18, r22
     89e:	22 0f       	add	r18, r18
     8a0:	33 1f       	adc	r19, r19
     8a2:	22 0f       	add	r18, r18
     8a4:	33 1f       	adc	r19, r19
     8a6:	22 5c       	subi	r18, 0xC2	; 194
     8a8:	3a 4f       	sbci	r19, 0xFA	; 250
     8aa:	e2 0f       	add	r30, r18
     8ac:	f3 1f       	adc	r31, r19
     8ae:	35 81       	ldd	r19, Z+5	; 0x05
     8b0:	09 c0       	rjmp	.+18     	; 0x8c4 <printField+0x7c>
     8b2:	30 e0       	ldi	r19, 0x00	; 0
     8b4:	07 c0       	rjmp	.+14     	; 0x8c4 <printField+0x7c>
     8b6:	30 e0       	ldi	r19, 0x00	; 0
     8b8:	05 c0       	rjmp	.+10     	; 0x8c4 <printField+0x7c>
     8ba:	30 e0       	ldi	r19, 0x00	; 0
     8bc:	03 c0       	rjmp	.+6      	; 0x8c4 <printField+0x7c>
     8be:	30 e0       	ldi	r19, 0x00	; 0
     8c0:	01 c0       	rjmp	.+2      	; 0x8c4 <printField+0x7c>
     8c2:	30 e0       	ldi	r19, 0x00	; 0
     8c4:	fc 01       	movw	r30, r24
     8c6:	ee 0f       	add	r30, r30
     8c8:	ff 1f       	adc	r31, r31
     8ca:	e8 0f       	add	r30, r24
     8cc:	f9 1f       	adc	r31, r25
     8ce:	ee 0f       	add	r30, r30
     8d0:	ff 1f       	adc	r31, r31
     8d2:	ee 0f       	add	r30, r30
     8d4:	ff 1f       	adc	r31, r31
     8d6:	e4 59       	subi	r30, 0x94	; 148
     8d8:	fa 4f       	sbci	r31, 0xFA	; 250
     8da:	e4 0f       	add	r30, r20
     8dc:	f5 1f       	adc	r31, r21
     8de:	20 81       	ld	r18, Z
     8e0:	22 23       	and	r18, r18
     8e2:	b9 f1       	breq	.+110    	; 0x952 <__stack+0x53>
     8e4:	9c 01       	movw	r18, r24
     8e6:	22 0f       	add	r18, r18
     8e8:	33 1f       	adc	r19, r19
     8ea:	f9 01       	movw	r30, r18
     8ec:	e8 0f       	add	r30, r24
     8ee:	f9 1f       	adc	r31, r25
     8f0:	ee 0f       	add	r30, r30
     8f2:	ff 1f       	adc	r31, r31
     8f4:	ee 0f       	add	r30, r30
     8f6:	ff 1f       	adc	r31, r31
     8f8:	e4 0f       	add	r30, r20
     8fa:	f5 1f       	adc	r31, r21
     8fc:	ee 0f       	add	r30, r30
     8fe:	ff 1f       	adc	r31, r31
     900:	e8 58       	subi	r30, 0x88	; 136
     902:	ff 4f       	sbci	r31, 0xFF	; 255
     904:	e4 91       	lpm	r30, Z
     906:	f0 e0       	ldi	r31, 0x00	; 0
     908:	d9 01       	movw	r26, r18
     90a:	a8 0f       	add	r26, r24
     90c:	b9 1f       	adc	r27, r25
     90e:	aa 0f       	add	r26, r26
     910:	bb 1f       	adc	r27, r27
     912:	aa 0f       	add	r26, r26
     914:	bb 1f       	adc	r27, r27
     916:	a4 59       	subi	r26, 0x94	; 148
     918:	ba 4f       	sbci	r27, 0xFA	; 250
     91a:	a4 0f       	add	r26, r20
     91c:	b5 1f       	adc	r27, r21
     91e:	a0 51       	subi	r26, 0x10	; 16
     920:	bf 4f       	sbci	r27, 0xFF	; 255
     922:	2c 91       	ld	r18, X
     924:	30 e0       	ldi	r19, 0x00	; 0
     926:	bf 01       	movw	r22, r30
     928:	66 0f       	add	r22, r22
     92a:	77 1f       	adc	r23, r23
     92c:	e6 0f       	add	r30, r22
     92e:	f7 1f       	adc	r31, r23
     930:	e7 54       	subi	r30, 0x47	; 71
     932:	fe 4f       	sbci	r31, 0xFE	; 254
     934:	d9 01       	movw	r26, r18
     936:	aa 0f       	add	r26, r26
     938:	bb 1f       	adc	r27, r27
     93a:	2a 0f       	add	r18, r26
     93c:	3b 1f       	adc	r19, r27
     93e:	d9 01       	movw	r26, r18
     940:	ae 5f       	subi	r26, 0xFE	; 254
     942:	be 4f       	sbci	r27, 0xFE	; 254
     944:	cd 90       	ld	r12, X+
     946:	dd 90       	ld	r13, X+
     948:	ec 90       	ld	r14, X
     94a:	c0 82       	st	Z, r12
     94c:	d1 82       	std	Z+1, r13	; 0x01
     94e:	e2 82       	std	Z+2, r14	; 0x02
     950:	4d c0       	rjmp	.+154    	; 0x9ec <__stack+0xed>
     952:	33 23       	and	r19, r19
     954:	51 f1       	breq	.+84     	; 0x9aa <__stack+0xab>
     956:	fc 01       	movw	r30, r24
     958:	ee 0f       	add	r30, r30
     95a:	ff 1f       	adc	r31, r31
     95c:	e8 0f       	add	r30, r24
     95e:	f9 1f       	adc	r31, r25
     960:	ee 0f       	add	r30, r30
     962:	ff 1f       	adc	r31, r31
     964:	ee 0f       	add	r30, r30
     966:	ff 1f       	adc	r31, r31
     968:	e4 0f       	add	r30, r20
     96a:	f5 1f       	adc	r31, r21
     96c:	ee 0f       	add	r30, r30
     96e:	ff 1f       	adc	r31, r31
     970:	e8 58       	subi	r30, 0x88	; 136
     972:	ff 4f       	sbci	r31, 0xFF	; 255
     974:	e4 91       	lpm	r30, Z
     976:	f0 e0       	ldi	r31, 0x00	; 0
     978:	20 91 53 05 	lds	r18, 0x0553	; 0x800553 <activeBrick+0x15>
     97c:	30 e0       	ldi	r19, 0x00	; 0
     97e:	bf 01       	movw	r22, r30
     980:	66 0f       	add	r22, r22
     982:	77 1f       	adc	r23, r23
     984:	e6 0f       	add	r30, r22
     986:	f7 1f       	adc	r31, r23
     988:	e7 54       	subi	r30, 0x47	; 71
     98a:	fe 4f       	sbci	r31, 0xFE	; 254
     98c:	d9 01       	movw	r26, r18
     98e:	aa 0f       	add	r26, r26
     990:	bb 1f       	adc	r27, r27
     992:	2a 0f       	add	r18, r26
     994:	3b 1f       	adc	r19, r27
     996:	d9 01       	movw	r26, r18
     998:	ae 5f       	subi	r26, 0xFE	; 254
     99a:	be 4f       	sbci	r27, 0xFE	; 254
     99c:	cd 90       	ld	r12, X+
     99e:	dd 90       	ld	r13, X+
     9a0:	ec 90       	ld	r14, X
     9a2:	c0 82       	st	Z, r12
     9a4:	d1 82       	std	Z+1, r13	; 0x01
     9a6:	e2 82       	std	Z+2, r14	; 0x02
     9a8:	21 c0       	rjmp	.+66     	; 0x9ec <__stack+0xed>
     9aa:	fc 01       	movw	r30, r24
     9ac:	ee 0f       	add	r30, r30
     9ae:	ff 1f       	adc	r31, r31
     9b0:	e8 0f       	add	r30, r24
     9b2:	f9 1f       	adc	r31, r25
     9b4:	ee 0f       	add	r30, r30
     9b6:	ff 1f       	adc	r31, r31
     9b8:	ee 0f       	add	r30, r30
     9ba:	ff 1f       	adc	r31, r31
     9bc:	e4 0f       	add	r30, r20
     9be:	f5 1f       	adc	r31, r21
     9c0:	ee 0f       	add	r30, r30
     9c2:	ff 1f       	adc	r31, r31
     9c4:	e8 58       	subi	r30, 0x88	; 136
     9c6:	ff 4f       	sbci	r31, 0xFF	; 255
     9c8:	e4 91       	lpm	r30, Z
     9ca:	f0 e0       	ldi	r31, 0x00	; 0
     9cc:	9f 01       	movw	r18, r30
     9ce:	22 0f       	add	r18, r18
     9d0:	33 1f       	adc	r19, r19
     9d2:	e2 0f       	add	r30, r18
     9d4:	f3 1f       	adc	r31, r19
     9d6:	e7 54       	subi	r30, 0x47	; 71
     9d8:	fe 4f       	sbci	r31, 0xFE	; 254
     9da:	c0 90 a5 01 	lds	r12, 0x01A5	; 0x8001a5 <led_off>
     9de:	d0 90 a6 01 	lds	r13, 0x01A6	; 0x8001a6 <led_off+0x1>
     9e2:	e0 90 a7 01 	lds	r14, 0x01A7	; 0x8001a7 <led_off+0x2>
     9e6:	c0 82       	st	Z, r12
     9e8:	d1 82       	std	Z+1, r13	; 0x01
     9ea:	e2 82       	std	Z+2, r14	; 0x02
     9ec:	01 96       	adiw	r24, 0x01	; 1
     9ee:	02 c0       	rjmp	.+4      	; 0x9f4 <__stack+0xf5>
     9f0:	80 e0       	ldi	r24, 0x00	; 0
     9f2:	90 e0       	ldi	r25, 0x00	; 0
     9f4:	84 31       	cpi	r24, 0x14	; 20
     9f6:	91 05       	cpc	r25, r1
     9f8:	0c f4       	brge	.+2      	; 0x9fc <__stack+0xfd>
     9fa:	2c cf       	rjmp	.-424    	; 0x854 <printField+0xc>
     9fc:	4f 5f       	subi	r20, 0xFF	; 255
     9fe:	5f 4f       	sbci	r21, 0xFF	; 255
     a00:	4c 30       	cpi	r20, 0x0C	; 12
     a02:	51 05       	cpc	r21, r1
     a04:	ac f3       	brlt	.-22     	; 0x9f0 <__stack+0xf1>
     a06:	6c e2       	ldi	r22, 0x2C	; 44
     a08:	71 e0       	ldi	r23, 0x01	; 1
     a0a:	89 eb       	ldi	r24, 0xB9	; 185
     a0c:	91 e0       	ldi	r25, 0x01	; 1
     a0e:	0e 94 cb 01 	call	0x396	; 0x396 <ws2812_setleds>
     a12:	85 e8       	ldi	r24, 0x85	; 133
     a14:	8a 95       	dec	r24
     a16:	f1 f7       	brne	.-4      	; 0xa14 <__stack+0x115>
     a18:	00 00       	nop
     a1a:	ef 90       	pop	r14
     a1c:	df 90       	pop	r13
     a1e:	cf 90       	pop	r12
     a20:	08 95       	ret

00000a22 <newActiveBrick>:
     a22:	cf 93       	push	r28
     a24:	df 93       	push	r29
     a26:	cd b7       	in	r28, 0x3d	; 61
     a28:	de b7       	in	r29, 0x3e	; 62
     a2a:	66 97       	sbiw	r28, 0x16	; 22
     a2c:	0f b6       	in	r0, 0x3f	; 63
     a2e:	f8 94       	cli
     a30:	de bf       	out	0x3e, r29	; 62
     a32:	0f be       	out	0x3f, r0	; 63
     a34:	cd bf       	out	0x3d, r28	; 61
     a36:	90 91 ad 01 	lds	r25, 0x01AD	; 0x8001ad <random6>
     a3a:	e9 2f       	mov	r30, r25
     a3c:	f0 e0       	ldi	r31, 0x00	; 0
     a3e:	ee 0f       	add	r30, r30
     a40:	ff 1f       	adc	r31, r31
     a42:	e0 5e       	subi	r30, 0xE0	; 224
     a44:	fc 4f       	sbci	r31, 0xFC	; 252
     a46:	44 91       	lpm	r20, Z
     a48:	40 93 a9 01 	sts	0x01A9, r20	; 0x8001a9 <selectedBrick>
     a4c:	80 91 ac 01 	lds	r24, 0x01AC	; 0x8001ac <random9>
     a50:	e8 2f       	mov	r30, r24
     a52:	f0 e0       	ldi	r31, 0x00	; 0
     a54:	ee 0f       	add	r30, r30
     a56:	ff 1f       	adc	r31, r31
     a58:	e0 53       	subi	r30, 0x30	; 48
     a5a:	fd 4f       	sbci	r31, 0xFD	; 253
     a5c:	64 91       	lpm	r22, Z
     a5e:	60 93 a8 01 	sts	0x01A8, r22	; 0x8001a8 <selectedColor>
     a62:	9f 5f       	subi	r25, 0xFF	; 255
     a64:	90 93 ad 01 	sts	0x01AD, r25	; 0x8001ad <random6>
     a68:	8f 5f       	subi	r24, 0xFF	; 255
     a6a:	80 93 ac 01 	sts	0x01AC, r24	; 0x8001ac <random9>
     a6e:	97 30       	cpi	r25, 0x07	; 7
     a70:	10 f0       	brcs	.+4      	; 0xa76 <newActiveBrick+0x54>
     a72:	10 92 ad 01 	sts	0x01AD, r1	; 0x8001ad <random6>
     a76:	8a 30       	cpi	r24, 0x0A	; 10
     a78:	10 f0       	brcs	.+4      	; 0xa7e <newActiveBrick+0x5c>
     a7a:	10 92 ac 01 	sts	0x01AC, r1	; 0x8001ac <random9>
     a7e:	50 e0       	ldi	r21, 0x00	; 0
     a80:	9a 01       	movw	r18, r20
     a82:	22 0f       	add	r18, r18
     a84:	33 1f       	adc	r19, r19
     a86:	c9 01       	movw	r24, r18
     a88:	88 0f       	add	r24, r24
     a8a:	99 1f       	adc	r25, r25
     a8c:	88 0f       	add	r24, r24
     a8e:	99 1f       	adc	r25, r25
     a90:	88 0f       	add	r24, r24
     a92:	99 1f       	adc	r25, r25
     a94:	82 0f       	add	r24, r18
     a96:	93 1f       	adc	r25, r19
     a98:	80 5e       	subi	r24, 0xE0	; 224
     a9a:	9e 4f       	sbci	r25, 0xFE	; 254
     a9c:	dc 01       	movw	r26, r24
     a9e:	11 96       	adiw	r26, 0x01	; 1
     aa0:	2c 91       	ld	r18, X
     aa2:	ae e3       	ldi	r26, 0x3E	; 62
     aa4:	b5 e0       	ldi	r27, 0x05	; 5
     aa6:	14 96       	adiw	r26, 0x04	; 4
     aa8:	2c 93       	st	X, r18
     aaa:	14 97       	sbiw	r26, 0x04	; 4
     aac:	fc 01       	movw	r30, r24
     aae:	90 81       	ld	r25, Z
     ab0:	13 96       	adiw	r26, 0x03	; 3
     ab2:	9c 93       	st	X, r25
     ab4:	13 97       	sbiw	r26, 0x03	; 3
     ab6:	26 95       	lsr	r18
     ab8:	86 e0       	ldi	r24, 0x06	; 6
     aba:	82 1b       	sub	r24, r18
     abc:	11 96       	adiw	r26, 0x01	; 1
     abe:	8c 93       	st	X, r24
     ac0:	11 97       	sbiw	r26, 0x01	; 1
     ac2:	84 e1       	ldi	r24, 0x14	; 20
     ac4:	89 1b       	sub	r24, r25
     ac6:	12 96       	adiw	r26, 0x02	; 2
     ac8:	8c 93       	st	X, r24
     aca:	12 97       	sbiw	r26, 0x02	; 2
     acc:	81 e0       	ldi	r24, 0x01	; 1
     ace:	8c 93       	st	X, r24
     ad0:	55 96       	adiw	r26, 0x15	; 21
     ad2:	6c 93       	st	X, r22
     ad4:	b0 e0       	ldi	r27, 0x00	; 0
     ad6:	28 c0       	rjmp	.+80     	; 0xb28 <newActiveBrick+0x106>
     ad8:	6a 2f       	mov	r22, r26
     ada:	70 e0       	ldi	r23, 0x00	; 0
     adc:	2b 2f       	mov	r18, r27
     ade:	30 e0       	ldi	r19, 0x00	; 0
     ae0:	66 0f       	add	r22, r22
     ae2:	77 1f       	adc	r23, r23
     ae4:	66 0f       	add	r22, r22
     ae6:	77 1f       	adc	r23, r23
     ae8:	fa 01       	movw	r30, r20
     aea:	ee 0f       	add	r30, r30
     aec:	ff 1f       	adc	r31, r31
     aee:	cf 01       	movw	r24, r30
     af0:	88 0f       	add	r24, r24
     af2:	99 1f       	adc	r25, r25
     af4:	88 0f       	add	r24, r24
     af6:	99 1f       	adc	r25, r25
     af8:	88 0f       	add	r24, r24
     afa:	99 1f       	adc	r25, r25
     afc:	e8 0f       	add	r30, r24
     afe:	f9 1f       	adc	r31, r25
     b00:	e6 0f       	add	r30, r22
     b02:	f7 1f       	adc	r31, r23
     b04:	e0 5e       	subi	r30, 0xE0	; 224
     b06:	fe 4f       	sbci	r31, 0xFE	; 254
     b08:	c9 01       	movw	r24, r18
     b0a:	e8 0f       	add	r30, r24
     b0c:	f9 1f       	adc	r31, r25
     b0e:	22 81       	ldd	r18, Z+2	; 0x02
     b10:	62 5c       	subi	r22, 0xC2	; 194
     b12:	7a 4f       	sbci	r23, 0xFA	; 250
     b14:	fb 01       	movw	r30, r22
     b16:	e8 0f       	add	r30, r24
     b18:	f9 1f       	adc	r31, r25
     b1a:	25 83       	std	Z+5, r18	; 0x05
     b1c:	af 5f       	subi	r26, 0xFF	; 255
     b1e:	01 c0       	rjmp	.+2      	; 0xb22 <newActiveBrick+0x100>
     b20:	a0 e0       	ldi	r26, 0x00	; 0
     b22:	a4 30       	cpi	r26, 0x04	; 4
     b24:	c8 f2       	brcs	.-78     	; 0xad8 <newActiveBrick+0xb6>
     b26:	bf 5f       	subi	r27, 0xFF	; 255
     b28:	b4 30       	cpi	r27, 0x04	; 4
     b2a:	d0 f3       	brcs	.-12     	; 0xb20 <newActiveBrick+0xfe>
     b2c:	86 e1       	ldi	r24, 0x16	; 22
     b2e:	ee e3       	ldi	r30, 0x3E	; 62
     b30:	f5 e0       	ldi	r31, 0x05	; 5
     b32:	de 01       	movw	r26, r28
     b34:	11 96       	adiw	r26, 0x01	; 1
     b36:	01 90       	ld	r0, Z+
     b38:	0d 92       	st	X+, r0
     b3a:	8a 95       	dec	r24
     b3c:	e1 f7       	brne	.-8      	; 0xb36 <newActiveBrick+0x114>
     b3e:	0e 94 bd 03 	call	0x77a	; 0x77a <showNextPiece>
     b42:	86 e1       	ldi	r24, 0x16	; 22
     b44:	fe 01       	movw	r30, r28
     b46:	31 96       	adiw	r30, 0x01	; 1
     b48:	ae e3       	ldi	r26, 0x3E	; 62
     b4a:	b5 e0       	ldi	r27, 0x05	; 5
     b4c:	01 90       	ld	r0, Z+
     b4e:	0d 92       	st	X+, r0
     b50:	8a 95       	dec	r24
     b52:	e1 f7       	brne	.-8      	; 0xb4c <newActiveBrick+0x12a>
     b54:	0e 94 24 04 	call	0x848	; 0x848 <printField>
     b58:	0e 94 9f 03 	call	0x73e	; 0x73e <clearNext>
     b5c:	8e e3       	ldi	r24, 0x3E	; 62
     b5e:	95 e0       	ldi	r25, 0x05	; 5
     b60:	0e 94 68 03 	call	0x6d0	; 0x6d0 <checkFieldCollision>
     b64:	89 2b       	or	r24, r25
     b66:	19 f0       	breq	.+6      	; 0xb6e <newActiveBrick+0x14c>
     b68:	81 e0       	ldi	r24, 0x01	; 1
     b6a:	80 93 aa 01 	sts	0x01AA, r24	; 0x8001aa <tetrisGameOver>
     b6e:	66 96       	adiw	r28, 0x16	; 22
     b70:	0f b6       	in	r0, 0x3f	; 63
     b72:	f8 94       	cli
     b74:	de bf       	out	0x3e, r29	; 62
     b76:	0f be       	out	0x3f, r0	; 63
     b78:	cd bf       	out	0x3d, r28	; 61
     b7a:	df 91       	pop	r29
     b7c:	cf 91       	pop	r28
     b7e:	08 95       	ret

00000b80 <rotateActiveBrick>:
     b80:	60 e0       	ldi	r22, 0x00	; 0
     b82:	1a c0       	rjmp	.+52     	; 0xbb8 <rotateActiveBrick+0x38>
     b84:	86 2f       	mov	r24, r22
     b86:	90 e0       	ldi	r25, 0x00	; 0
     b88:	24 2f       	mov	r18, r20
     b8a:	30 e0       	ldi	r19, 0x00	; 0
     b8c:	88 0f       	add	r24, r24
     b8e:	99 1f       	adc	r25, r25
     b90:	88 0f       	add	r24, r24
     b92:	99 1f       	adc	r25, r25
     b94:	fc 01       	movw	r30, r24
     b96:	e2 5c       	subi	r30, 0xC2	; 194
     b98:	fa 4f       	sbci	r31, 0xFA	; 250
     b9a:	e2 0f       	add	r30, r18
     b9c:	f3 1f       	adc	r31, r19
     b9e:	55 81       	ldd	r21, Z+5	; 0x05
     ba0:	8c 5a       	subi	r24, 0xAC	; 172
     ba2:	9a 4f       	sbci	r25, 0xFA	; 250
     ba4:	fc 01       	movw	r30, r24
     ba6:	e2 0f       	add	r30, r18
     ba8:	f3 1f       	adc	r31, r19
     baa:	55 83       	std	Z+5, r21	; 0x05
     bac:	4f 5f       	subi	r20, 0xFF	; 255
     bae:	01 c0       	rjmp	.+2      	; 0xbb2 <rotateActiveBrick+0x32>
     bb0:	40 e0       	ldi	r20, 0x00	; 0
     bb2:	44 30       	cpi	r20, 0x04	; 4
     bb4:	38 f3       	brcs	.-50     	; 0xb84 <rotateActiveBrick+0x4>
     bb6:	6f 5f       	subi	r22, 0xFF	; 255
     bb8:	64 30       	cpi	r22, 0x04	; 4
     bba:	d0 f3       	brcs	.-12     	; 0xbb0 <rotateActiveBrick+0x30>
     bbc:	ae e3       	ldi	r26, 0x3E	; 62
     bbe:	b5 e0       	ldi	r27, 0x05	; 5
     bc0:	11 96       	adiw	r26, 0x01	; 1
     bc2:	8c 91       	ld	r24, X
     bc4:	11 97       	sbiw	r26, 0x01	; 1
     bc6:	e4 e5       	ldi	r30, 0x54	; 84
     bc8:	f5 e0       	ldi	r31, 0x05	; 5
     bca:	81 83       	std	Z+1, r24	; 0x01
     bcc:	12 96       	adiw	r26, 0x02	; 2
     bce:	8c 91       	ld	r24, X
     bd0:	12 97       	sbiw	r26, 0x02	; 2
     bd2:	82 83       	std	Z+2, r24	; 0x02
     bd4:	14 96       	adiw	r26, 0x04	; 4
     bd6:	8c 91       	ld	r24, X
     bd8:	14 97       	sbiw	r26, 0x04	; 4
     bda:	84 83       	std	Z+4, r24	; 0x04
     bdc:	83 30       	cpi	r24, 0x03	; 3
     bde:	59 f5       	brne	.+86     	; 0xc36 <rotateActiveBrick+0xb6>
     be0:	17 96       	adiw	r26, 0x07	; 7
     be2:	8c 91       	ld	r24, X
     be4:	17 97       	sbiw	r26, 0x07	; 7
     be6:	85 83       	std	Z+5, r24	; 0x05
     be8:	1b 96       	adiw	r26, 0x0b	; 11
     bea:	8c 91       	ld	r24, X
     bec:	1b 97       	sbiw	r26, 0x0b	; 11
     bee:	86 83       	std	Z+6, r24	; 0x06
     bf0:	1f 96       	adiw	r26, 0x0f	; 15
     bf2:	8c 91       	ld	r24, X
     bf4:	1f 97       	sbiw	r26, 0x0f	; 15
     bf6:	87 83       	std	Z+7, r24	; 0x07
     bf8:	16 96       	adiw	r26, 0x06	; 6
     bfa:	8c 91       	ld	r24, X
     bfc:	16 97       	sbiw	r26, 0x06	; 6
     bfe:	81 87       	std	Z+9, r24	; 0x09
     c00:	1a 96       	adiw	r26, 0x0a	; 10
     c02:	8c 91       	ld	r24, X
     c04:	1a 97       	sbiw	r26, 0x0a	; 10
     c06:	82 87       	std	Z+10, r24	; 0x0a
     c08:	1e 96       	adiw	r26, 0x0e	; 14
     c0a:	8c 91       	ld	r24, X
     c0c:	1e 97       	sbiw	r26, 0x0e	; 14
     c0e:	83 87       	std	Z+11, r24	; 0x0b
     c10:	15 96       	adiw	r26, 0x05	; 5
     c12:	8c 91       	ld	r24, X
     c14:	15 97       	sbiw	r26, 0x05	; 5
     c16:	85 87       	std	Z+13, r24	; 0x0d
     c18:	19 96       	adiw	r26, 0x09	; 9
     c1a:	8c 91       	ld	r24, X
     c1c:	19 97       	sbiw	r26, 0x09	; 9
     c1e:	86 87       	std	Z+14, r24	; 0x0e
     c20:	1d 96       	adiw	r26, 0x0d	; 13
     c22:	8c 91       	ld	r24, X
     c24:	87 87       	std	Z+15, r24	; 0x0f
     c26:	10 86       	std	Z+8, r1	; 0x08
     c28:	14 86       	std	Z+12, r1	; 0x0c
     c2a:	10 8a       	std	Z+16, r1	; 0x10
     c2c:	14 8a       	std	Z+20, r1	; 0x14
     c2e:	13 8a       	std	Z+19, r1	; 0x13
     c30:	12 8a       	std	Z+18, r1	; 0x12
     c32:	11 8a       	std	Z+17, r1	; 0x11
     c34:	4b c0       	rjmp	.+150    	; 0xccc <rotateActiveBrick+0x14c>
     c36:	90 91 a9 01 	lds	r25, 0x01A9	; 0x8001a9 <selectedBrick>
     c3a:	99 23       	and	r25, r25
     c3c:	09 f4       	brne	.+2      	; 0xc40 <rotateActiveBrick+0xc0>
     c3e:	74 c0       	rjmp	.+232    	; 0xd28 <rotateActiveBrick+0x1a8>
     c40:	84 30       	cpi	r24, 0x04	; 4
     c42:	09 f0       	breq	.+2      	; 0xc46 <rotateActiveBrick+0xc6>
     c44:	43 c0       	rjmp	.+134    	; 0xccc <rotateActiveBrick+0x14c>
     c46:	ae e3       	ldi	r26, 0x3E	; 62
     c48:	b5 e0       	ldi	r27, 0x05	; 5
     c4a:	18 96       	adiw	r26, 0x08	; 8
     c4c:	8c 91       	ld	r24, X
     c4e:	18 97       	sbiw	r26, 0x08	; 8
     c50:	e4 e5       	ldi	r30, 0x54	; 84
     c52:	f5 e0       	ldi	r31, 0x05	; 5
     c54:	85 83       	std	Z+5, r24	; 0x05
     c56:	1c 96       	adiw	r26, 0x0c	; 12
     c58:	8c 91       	ld	r24, X
     c5a:	1c 97       	sbiw	r26, 0x0c	; 12
     c5c:	86 83       	std	Z+6, r24	; 0x06
     c5e:	50 96       	adiw	r26, 0x10	; 16
     c60:	8c 91       	ld	r24, X
     c62:	50 97       	sbiw	r26, 0x10	; 16
     c64:	87 83       	std	Z+7, r24	; 0x07
     c66:	54 96       	adiw	r26, 0x14	; 20
     c68:	8c 91       	ld	r24, X
     c6a:	54 97       	sbiw	r26, 0x14	; 20
     c6c:	80 87       	std	Z+8, r24	; 0x08
     c6e:	17 96       	adiw	r26, 0x07	; 7
     c70:	8c 91       	ld	r24, X
     c72:	17 97       	sbiw	r26, 0x07	; 7
     c74:	81 87       	std	Z+9, r24	; 0x09
     c76:	1b 96       	adiw	r26, 0x0b	; 11
     c78:	8c 91       	ld	r24, X
     c7a:	1b 97       	sbiw	r26, 0x0b	; 11
     c7c:	82 87       	std	Z+10, r24	; 0x0a
     c7e:	1f 96       	adiw	r26, 0x0f	; 15
     c80:	8c 91       	ld	r24, X
     c82:	1f 97       	sbiw	r26, 0x0f	; 15
     c84:	83 87       	std	Z+11, r24	; 0x0b
     c86:	53 96       	adiw	r26, 0x13	; 19
     c88:	8c 91       	ld	r24, X
     c8a:	53 97       	sbiw	r26, 0x13	; 19
     c8c:	84 87       	std	Z+12, r24	; 0x0c
     c8e:	16 96       	adiw	r26, 0x06	; 6
     c90:	8c 91       	ld	r24, X
     c92:	16 97       	sbiw	r26, 0x06	; 6
     c94:	85 87       	std	Z+13, r24	; 0x0d
     c96:	1a 96       	adiw	r26, 0x0a	; 10
     c98:	8c 91       	ld	r24, X
     c9a:	1a 97       	sbiw	r26, 0x0a	; 10
     c9c:	86 87       	std	Z+14, r24	; 0x0e
     c9e:	1e 96       	adiw	r26, 0x0e	; 14
     ca0:	8c 91       	ld	r24, X
     ca2:	1e 97       	sbiw	r26, 0x0e	; 14
     ca4:	87 87       	std	Z+15, r24	; 0x0f
     ca6:	52 96       	adiw	r26, 0x12	; 18
     ca8:	8c 91       	ld	r24, X
     caa:	52 97       	sbiw	r26, 0x12	; 18
     cac:	80 8b       	std	Z+16, r24	; 0x10
     cae:	15 96       	adiw	r26, 0x05	; 5
     cb0:	8c 91       	ld	r24, X
     cb2:	15 97       	sbiw	r26, 0x05	; 5
     cb4:	81 8b       	std	Z+17, r24	; 0x11
     cb6:	19 96       	adiw	r26, 0x09	; 9
     cb8:	8c 91       	ld	r24, X
     cba:	19 97       	sbiw	r26, 0x09	; 9
     cbc:	82 8b       	std	Z+18, r24	; 0x12
     cbe:	1d 96       	adiw	r26, 0x0d	; 13
     cc0:	8c 91       	ld	r24, X
     cc2:	1d 97       	sbiw	r26, 0x0d	; 13
     cc4:	83 8b       	std	Z+19, r24	; 0x13
     cc6:	51 96       	adiw	r26, 0x11	; 17
     cc8:	8c 91       	ld	r24, X
     cca:	84 8b       	std	Z+20, r24	; 0x14
     ccc:	84 e5       	ldi	r24, 0x54	; 84
     cce:	95 e0       	ldi	r25, 0x05	; 5
     cd0:	0e 94 44 03 	call	0x688	; 0x688 <checkSidesCollision>
     cd4:	89 2b       	or	r24, r25
     cd6:	31 f5       	brne	.+76     	; 0xd24 <rotateActiveBrick+0x1a4>
     cd8:	84 e5       	ldi	r24, 0x54	; 84
     cda:	95 e0       	ldi	r25, 0x05	; 5
     cdc:	0e 94 68 03 	call	0x6d0	; 0x6d0 <checkFieldCollision>
     ce0:	89 2b       	or	r24, r25
     ce2:	e9 f0       	breq	.+58     	; 0xd1e <rotateActiveBrick+0x19e>
     ce4:	1f c0       	rjmp	.+62     	; 0xd24 <rotateActiveBrick+0x1a4>
     ce6:	46 2f       	mov	r20, r22
     ce8:	50 e0       	ldi	r21, 0x00	; 0
     cea:	27 2f       	mov	r18, r23
     cec:	30 e0       	ldi	r19, 0x00	; 0
     cee:	44 0f       	add	r20, r20
     cf0:	55 1f       	adc	r21, r21
     cf2:	44 0f       	add	r20, r20
     cf4:	55 1f       	adc	r21, r21
     cf6:	fa 01       	movw	r30, r20
     cf8:	ec 5a       	subi	r30, 0xAC	; 172
     cfa:	fa 4f       	sbci	r31, 0xFA	; 250
     cfc:	c9 01       	movw	r24, r18
     cfe:	e8 0f       	add	r30, r24
     d00:	f9 1f       	adc	r31, r25
     d02:	25 81       	ldd	r18, Z+5	; 0x05
     d04:	42 5c       	subi	r20, 0xC2	; 194
     d06:	5a 4f       	sbci	r21, 0xFA	; 250
     d08:	fa 01       	movw	r30, r20
     d0a:	e8 0f       	add	r30, r24
     d0c:	f9 1f       	adc	r31, r25
     d0e:	25 83       	std	Z+5, r18	; 0x05
     d10:	6f 5f       	subi	r22, 0xFF	; 255
     d12:	01 c0       	rjmp	.+2      	; 0xd16 <rotateActiveBrick+0x196>
     d14:	60 e0       	ldi	r22, 0x00	; 0
     d16:	64 30       	cpi	r22, 0x04	; 4
     d18:	30 f3       	brcs	.-52     	; 0xce6 <rotateActiveBrick+0x166>
     d1a:	7f 5f       	subi	r23, 0xFF	; 255
     d1c:	01 c0       	rjmp	.+2      	; 0xd20 <rotateActiveBrick+0x1a0>
     d1e:	70 e0       	ldi	r23, 0x00	; 0
     d20:	74 30       	cpi	r23, 0x04	; 4
     d22:	c0 f3       	brcs	.-16     	; 0xd14 <rotateActiveBrick+0x194>
     d24:	0e 94 24 04 	call	0x848	; 0x848 <printField>
     d28:	08 95       	ret

00000d2a <shiftActiveBrick>:
     d2a:	cf 93       	push	r28
     d2c:	df 93       	push	r29
     d2e:	c8 2f       	mov	r28, r24
     d30:	8c 36       	cpi	r24, 0x6C	; 108
     d32:	31 f4       	brne	.+12     	; 0xd40 <shiftActiveBrick+0x16>
     d34:	ee e3       	ldi	r30, 0x3E	; 62
     d36:	f5 e0       	ldi	r31, 0x05	; 5
     d38:	81 81       	ldd	r24, Z+1	; 0x01
     d3a:	81 50       	subi	r24, 0x01	; 1
     d3c:	81 83       	std	Z+1, r24	; 0x01
     d3e:	19 c0       	rjmp	.+50     	; 0xd72 <shiftActiveBrick+0x48>
     d40:	82 37       	cpi	r24, 0x72	; 114
     d42:	31 f4       	brne	.+12     	; 0xd50 <shiftActiveBrick+0x26>
     d44:	ee e3       	ldi	r30, 0x3E	; 62
     d46:	f5 e0       	ldi	r31, 0x05	; 5
     d48:	81 81       	ldd	r24, Z+1	; 0x01
     d4a:	8f 5f       	subi	r24, 0xFF	; 255
     d4c:	81 83       	std	Z+1, r24	; 0x01
     d4e:	11 c0       	rjmp	.+34     	; 0xd72 <shiftActiveBrick+0x48>
     d50:	84 36       	cpi	r24, 0x64	; 100
     d52:	79 f4       	brne	.+30     	; 0xd72 <shiftActiveBrick+0x48>
     d54:	ee e3       	ldi	r30, 0x3E	; 62
     d56:	f5 e0       	ldi	r31, 0x05	; 5
     d58:	82 81       	ldd	r24, Z+2	; 0x02
     d5a:	81 50       	subi	r24, 0x01	; 1
     d5c:	82 83       	std	Z+2, r24	; 0x02
     d5e:	81 11       	cpse	r24, r1
     d60:	08 c0       	rjmp	.+16     	; 0xd72 <shiftActiveBrick+0x48>
     d62:	0e 94 f5 02 	call	0x5ea	; 0x5ea <addActiveBrickToField>
     d66:	10 92 3e 05 	sts	0x053E, r1	; 0x80053e <activeBrick>
     d6a:	0e 94 9f 03 	call	0x73e	; 0x73e <clearNext>
     d6e:	0e 94 11 05 	call	0xa22	; 0xa22 <newActiveBrick>
     d72:	8e e3       	ldi	r24, 0x3E	; 62
     d74:	95 e0       	ldi	r25, 0x05	; 5
     d76:	0e 94 44 03 	call	0x688	; 0x688 <checkSidesCollision>
     d7a:	89 2b       	or	r24, r25
     d7c:	31 f4       	brne	.+12     	; 0xd8a <shiftActiveBrick+0x60>
     d7e:	8e e3       	ldi	r24, 0x3E	; 62
     d80:	95 e0       	ldi	r25, 0x05	; 5
     d82:	0e 94 68 03 	call	0x6d0	; 0x6d0 <checkFieldCollision>
     d86:	89 2b       	or	r24, r25
     d88:	e1 f0       	breq	.+56     	; 0xdc2 <shiftActiveBrick+0x98>
     d8a:	cc 36       	cpi	r28, 0x6C	; 108
     d8c:	31 f4       	brne	.+12     	; 0xd9a <shiftActiveBrick+0x70>
     d8e:	ee e3       	ldi	r30, 0x3E	; 62
     d90:	f5 e0       	ldi	r31, 0x05	; 5
     d92:	81 81       	ldd	r24, Z+1	; 0x01
     d94:	8f 5f       	subi	r24, 0xFF	; 255
     d96:	81 83       	std	Z+1, r24	; 0x01
     d98:	14 c0       	rjmp	.+40     	; 0xdc2 <shiftActiveBrick+0x98>
     d9a:	c2 37       	cpi	r28, 0x72	; 114
     d9c:	31 f4       	brne	.+12     	; 0xdaa <shiftActiveBrick+0x80>
     d9e:	ee e3       	ldi	r30, 0x3E	; 62
     da0:	f5 e0       	ldi	r31, 0x05	; 5
     da2:	81 81       	ldd	r24, Z+1	; 0x01
     da4:	81 50       	subi	r24, 0x01	; 1
     da6:	81 83       	std	Z+1, r24	; 0x01
     da8:	0c c0       	rjmp	.+24     	; 0xdc2 <shiftActiveBrick+0x98>
     daa:	c4 36       	cpi	r28, 0x64	; 100
     dac:	51 f4       	brne	.+20     	; 0xdc2 <shiftActiveBrick+0x98>
     dae:	ce e3       	ldi	r28, 0x3E	; 62
     db0:	d5 e0       	ldi	r29, 0x05	; 5
     db2:	8a 81       	ldd	r24, Y+2	; 0x02
     db4:	8f 5f       	subi	r24, 0xFF	; 255
     db6:	8a 83       	std	Y+2, r24	; 0x02
     db8:	0e 94 f5 02 	call	0x5ea	; 0x5ea <addActiveBrickToField>
     dbc:	18 82       	st	Y, r1
     dbe:	0e 94 9f 03 	call	0x73e	; 0x73e <clearNext>
     dc2:	0e 94 24 04 	call	0x848	; 0x848 <printField>
     dc6:	85 e8       	ldi	r24, 0x85	; 133
     dc8:	8a 95       	dec	r24
     dca:	f1 f7       	brne	.-4      	; 0xdc8 <shiftActiveBrick+0x9e>
     dcc:	00 00       	nop
     dce:	df 91       	pop	r29
     dd0:	cf 91       	pop	r28
     dd2:	08 95       	ret

00000dd4 <moveFieldDownOne>:
     dd4:	1f 93       	push	r17
     dd6:	cf 93       	push	r28
     dd8:	df 93       	push	r29
     dda:	83 31       	cpi	r24, 0x13	; 19
     ddc:	e9 f5       	brne	.+122    	; 0xe58 <moveFieldDownOne+0x84>
     dde:	3e c0       	rjmp	.+124    	; 0xe5c <moveFieldDownOne+0x88>
     de0:	48 2f       	mov	r20, r24
     de2:	50 e0       	ldi	r21, 0x00	; 0
     de4:	9a 01       	movw	r18, r20
     de6:	2f 5f       	subi	r18, 0xFF	; 255
     de8:	3f 4f       	sbci	r19, 0xFF	; 255
     dea:	69 2f       	mov	r22, r25
     dec:	70 e0       	ldi	r23, 0x00	; 0
     dee:	f9 01       	movw	r30, r18
     df0:	ee 0f       	add	r30, r30
     df2:	ff 1f       	adc	r31, r31
     df4:	df 01       	movw	r26, r30
     df6:	a2 0f       	add	r26, r18
     df8:	b3 1f       	adc	r27, r19
     dfa:	aa 0f       	add	r26, r26
     dfc:	bb 1f       	adc	r27, r27
     dfe:	aa 0f       	add	r26, r26
     e00:	bb 1f       	adc	r27, r27
     e02:	a4 59       	subi	r26, 0x94	; 148
     e04:	ba 4f       	sbci	r27, 0xFA	; 250
     e06:	a6 0f       	add	r26, r22
     e08:	b7 1f       	adc	r27, r23
     e0a:	1c 91       	ld	r17, X
     e0c:	da 01       	movw	r26, r20
     e0e:	aa 0f       	add	r26, r26
     e10:	bb 1f       	adc	r27, r27
     e12:	ed 01       	movw	r28, r26
     e14:	c4 0f       	add	r28, r20
     e16:	d5 1f       	adc	r29, r21
     e18:	cc 0f       	add	r28, r28
     e1a:	dd 1f       	adc	r29, r29
     e1c:	cc 0f       	add	r28, r28
     e1e:	dd 1f       	adc	r29, r29
     e20:	c4 59       	subi	r28, 0x94	; 148
     e22:	da 4f       	sbci	r29, 0xFA	; 250
     e24:	c6 0f       	add	r28, r22
     e26:	d7 1f       	adc	r29, r23
     e28:	18 83       	st	Y, r17
     e2a:	e2 0f       	add	r30, r18
     e2c:	f3 1f       	adc	r31, r19
     e2e:	ee 0f       	add	r30, r30
     e30:	ff 1f       	adc	r31, r31
     e32:	ee 0f       	add	r30, r30
     e34:	ff 1f       	adc	r31, r31
     e36:	e4 59       	subi	r30, 0x94	; 148
     e38:	fa 4f       	sbci	r31, 0xFA	; 250
     e3a:	e6 0f       	add	r30, r22
     e3c:	f7 1f       	adc	r31, r23
     e3e:	e0 51       	subi	r30, 0x10	; 16
     e40:	ff 4f       	sbci	r31, 0xFF	; 255
     e42:	20 81       	ld	r18, Z
     e44:	fe 01       	movw	r30, r28
     e46:	e0 51       	subi	r30, 0x10	; 16
     e48:	ff 4f       	sbci	r31, 0xFF	; 255
     e4a:	20 83       	st	Z, r18
     e4c:	9f 5f       	subi	r25, 0xFF	; 255
     e4e:	01 c0       	rjmp	.+2      	; 0xe52 <moveFieldDownOne+0x7e>
     e50:	90 e0       	ldi	r25, 0x00	; 0
     e52:	9c 30       	cpi	r25, 0x0C	; 12
     e54:	28 f2       	brcs	.-118    	; 0xde0 <moveFieldDownOne+0xc>
     e56:	8f 5f       	subi	r24, 0xFF	; 255
     e58:	83 31       	cpi	r24, 0x13	; 19
     e5a:	d0 f3       	brcs	.-12     	; 0xe50 <moveFieldDownOne+0x7c>
     e5c:	df 91       	pop	r29
     e5e:	cf 91       	pop	r28
     e60:	1f 91       	pop	r17
     e62:	08 95       	ret

00000e64 <checkFullLines>:
     e64:	ef 92       	push	r14
     e66:	ff 92       	push	r15
     e68:	0f 93       	push	r16
     e6a:	1f 93       	push	r17
     e6c:	cf 93       	push	r28
     e6e:	df 93       	push	r29
     e70:	c0 e0       	ldi	r28, 0x00	; 0
     e72:	d0 e0       	ldi	r29, 0x00	; 0
     e74:	03 e1       	ldi	r16, 0x13	; 19
     e76:	10 e0       	ldi	r17, 0x00	; 0
     e78:	59 c0       	rjmp	.+178    	; 0xf2c <checkFullLines+0xc8>
     e7a:	f8 01       	movw	r30, r16
     e7c:	ee 0f       	add	r30, r30
     e7e:	ff 1f       	adc	r31, r31
     e80:	e0 0f       	add	r30, r16
     e82:	f1 1f       	adc	r31, r17
     e84:	ee 0f       	add	r30, r30
     e86:	ff 1f       	adc	r31, r31
     e88:	ee 0f       	add	r30, r30
     e8a:	ff 1f       	adc	r31, r31
     e8c:	e4 59       	subi	r30, 0x94	; 148
     e8e:	fa 4f       	sbci	r31, 0xFA	; 250
     e90:	e8 0f       	add	r30, r24
     e92:	f9 1f       	adc	r31, r25
     e94:	30 81       	ld	r19, Z
     e96:	23 0f       	add	r18, r19
     e98:	01 96       	adiw	r24, 0x01	; 1
     e9a:	03 c0       	rjmp	.+6      	; 0xea2 <checkFullLines+0x3e>
     e9c:	20 e0       	ldi	r18, 0x00	; 0
     e9e:	80 e0       	ldi	r24, 0x00	; 0
     ea0:	90 e0       	ldi	r25, 0x00	; 0
     ea2:	8c 30       	cpi	r24, 0x0C	; 12
     ea4:	91 05       	cpc	r25, r1
     ea6:	4c f3       	brlt	.-46     	; 0xe7a <checkFullLines+0x16>
     ea8:	2c 30       	cpi	r18, 0x0C	; 12
     eaa:	d8 f4       	brcc	.+54     	; 0xee2 <checkFullLines+0x7e>
     eac:	3d c0       	rjmp	.+122    	; 0xf28 <checkFullLines+0xc4>
     eae:	f8 01       	movw	r30, r16
     eb0:	ee 0f       	add	r30, r30
     eb2:	ff 1f       	adc	r31, r31
     eb4:	e0 0f       	add	r30, r16
     eb6:	f1 1f       	adc	r31, r17
     eb8:	ee 0f       	add	r30, r30
     eba:	ff 1f       	adc	r31, r31
     ebc:	ee 0f       	add	r30, r30
     ebe:	ff 1f       	adc	r31, r31
     ec0:	e4 59       	subi	r30, 0x94	; 148
     ec2:	fa 4f       	sbci	r31, 0xFA	; 250
     ec4:	ee 0d       	add	r30, r14
     ec6:	ff 1d       	adc	r31, r15
     ec8:	10 82       	st	Z, r1
     eca:	0e 94 24 04 	call	0x848	; 0x848 <printField>
     ece:	8b e2       	ldi	r24, 0x2B	; 43
     ed0:	91 e0       	ldi	r25, 0x01	; 1
     ed2:	01 97       	sbiw	r24, 0x01	; 1
     ed4:	f1 f7       	brne	.-4      	; 0xed2 <checkFullLines+0x6e>
     ed6:	00 c0       	rjmp	.+0      	; 0xed8 <checkFullLines+0x74>
     ed8:	00 00       	nop
     eda:	9f ef       	ldi	r25, 0xFF	; 255
     edc:	e9 1a       	sub	r14, r25
     ede:	f9 0a       	sbc	r15, r25
     ee0:	02 c0       	rjmp	.+4      	; 0xee6 <checkFullLines+0x82>
     ee2:	e1 2c       	mov	r14, r1
     ee4:	f1 2c       	mov	r15, r1
     ee6:	8c e0       	ldi	r24, 0x0C	; 12
     ee8:	e8 16       	cp	r14, r24
     eea:	f1 04       	cpc	r15, r1
     eec:	04 f3       	brlt	.-64     	; 0xeae <checkFullLines+0x4a>
     eee:	80 2f       	mov	r24, r16
     ef0:	0e 94 ea 06 	call	0xdd4	; 0xdd4 <moveFieldDownOne>
     ef4:	0f 5f       	subi	r16, 0xFF	; 255
     ef6:	1f 4f       	sbci	r17, 0xFF	; 255
     ef8:	21 96       	adiw	r28, 0x01	; 1
     efa:	0e 94 24 04 	call	0x848	; 0x848 <printField>
     efe:	80 91 3d 05 	lds	r24, 0x053D	; 0x80053d <nbRowsThisLevel>
     f02:	8f 5f       	subi	r24, 0xFF	; 255
     f04:	80 93 3d 05 	sts	0x053D, r24	; 0x80053d <nbRowsThisLevel>
     f08:	90 91 6b 05 	lds	r25, 0x056B	; 0x80056b <nbRowsTotal>
     f0c:	9f 5f       	subi	r25, 0xFF	; 255
     f0e:	90 93 6b 05 	sts	0x056B, r25	; 0x80056b <nbRowsTotal>
     f12:	82 30       	cpi	r24, 0x02	; 2
     f14:	48 f0       	brcs	.+18     	; 0xf28 <checkFullLines+0xc4>
     f16:	10 92 3d 05 	sts	0x053D, r1	; 0x80053d <nbRowsThisLevel>
     f1a:	80 91 ab 01 	lds	r24, 0x01AB	; 0x8001ab <speed>
     f1e:	87 30       	cpi	r24, 0x07	; 7
     f20:	18 f4       	brcc	.+6      	; 0xf28 <checkFullLines+0xc4>
     f22:	8f 5f       	subi	r24, 0xFF	; 255
     f24:	80 93 ab 01 	sts	0x01AB, r24	; 0x8001ab <speed>
     f28:	01 50       	subi	r16, 0x01	; 1
     f2a:	11 09       	sbc	r17, r1
     f2c:	0c 17       	cp	r16, r28
     f2e:	1d 07       	cpc	r17, r29
     f30:	0c f0       	brlt	.+2      	; 0xf34 <checkFullLines+0xd0>
     f32:	b4 cf       	rjmp	.-152    	; 0xe9c <checkFullLines+0x38>
     f34:	df 91       	pop	r29
     f36:	cf 91       	pop	r28
     f38:	1f 91       	pop	r17
     f3a:	0f 91       	pop	r16
     f3c:	ff 90       	pop	r15
     f3e:	ef 90       	pop	r14
     f40:	08 95       	ret

00000f42 <clearTable>:
     f42:	8c e2       	ldi	r24, 0x2C	; 44
     f44:	91 e0       	ldi	r25, 0x01	; 1
     f46:	0b c0       	rjmp	.+22     	; 0xf5e <clearTable+0x1c>
     f48:	01 97       	sbiw	r24, 0x01	; 1
     f4a:	fc 01       	movw	r30, r24
     f4c:	ee 0f       	add	r30, r30
     f4e:	ff 1f       	adc	r31, r31
     f50:	e8 0f       	add	r30, r24
     f52:	f9 1f       	adc	r31, r25
     f54:	e7 54       	subi	r30, 0x47	; 71
     f56:	fe 4f       	sbci	r31, 0xFE	; 254
     f58:	11 82       	std	Z+1, r1	; 0x01
     f5a:	10 82       	st	Z, r1
     f5c:	12 82       	std	Z+2, r1	; 0x02
     f5e:	18 16       	cp	r1, r24
     f60:	19 06       	cpc	r1, r25
     f62:	94 f3       	brlt	.-28     	; 0xf48 <clearTable+0x6>
     f64:	6c e2       	ldi	r22, 0x2C	; 44
     f66:	71 e0       	ldi	r23, 0x01	; 1
     f68:	89 eb       	ldi	r24, 0xB9	; 185
     f6a:	91 e0       	ldi	r25, 0x01	; 1
     f6c:	0e 94 cb 01 	call	0x396	; 0x396 <ws2812_setleds>
     f70:	85 e8       	ldi	r24, 0x85	; 133
     f72:	8a 95       	dec	r24
     f74:	f1 f7       	brne	.-4      	; 0xf72 <clearTable+0x30>
     f76:	00 00       	nop
     f78:	08 95       	ret

00000f7a <menu>:
     f7a:	80 e0       	ldi	r24, 0x00	; 0
     f7c:	90 e0       	ldi	r25, 0x00	; 0
     f7e:	18 c0       	rjmp	.+48     	; 0xfb0 <menu+0x36>
     f80:	fc 01       	movw	r30, r24
     f82:	ee 0f       	add	r30, r30
     f84:	ff 1f       	adc	r31, r31
     f86:	e8 58       	subi	r30, 0x88	; 136
     f88:	ff 4f       	sbci	r31, 0xFF	; 255
     f8a:	e4 91       	lpm	r30, Z
     f8c:	f0 e0       	ldi	r31, 0x00	; 0
     f8e:	9f 01       	movw	r18, r30
     f90:	22 0f       	add	r18, r18
     f92:	33 1f       	adc	r19, r19
     f94:	e2 0f       	add	r30, r18
     f96:	f3 1f       	adc	r31, r19
     f98:	e7 54       	subi	r30, 0x47	; 71
     f9a:	fe 4f       	sbci	r31, 0xFE	; 254
     f9c:	20 91 05 01 	lds	r18, 0x0105	; 0x800105 <colors+0x3>
     fa0:	30 91 06 01 	lds	r19, 0x0106	; 0x800106 <colors+0x4>
     fa4:	40 91 07 01 	lds	r20, 0x0107	; 0x800107 <colors+0x5>
     fa8:	20 83       	st	Z, r18
     faa:	31 83       	std	Z+1, r19	; 0x01
     fac:	42 83       	std	Z+2, r20	; 0x02
     fae:	01 96       	adiw	r24, 0x01	; 1
     fb0:	84 30       	cpi	r24, 0x04	; 4
     fb2:	91 05       	cpc	r25, r1
     fb4:	2c f3       	brlt	.-54     	; 0xf80 <menu+0x6>
     fb6:	80 e0       	ldi	r24, 0x00	; 0
     fb8:	90 e0       	ldi	r25, 0x00	; 0
     fba:	27 c0       	rjmp	.+78     	; 0x100a <menu+0x90>
     fbc:	fc 01       	movw	r30, r24
     fbe:	3c 96       	adiw	r30, 0x0c	; 12
     fc0:	ee 0f       	add	r30, r30
     fc2:	ff 1f       	adc	r31, r31
     fc4:	e8 58       	subi	r30, 0x88	; 136
     fc6:	ff 4f       	sbci	r31, 0xFF	; 255
     fc8:	e4 91       	lpm	r30, Z
     fca:	f0 e0       	ldi	r31, 0x00	; 0
     fcc:	9f 01       	movw	r18, r30
     fce:	22 0f       	add	r18, r18
     fd0:	33 1f       	adc	r19, r19
     fd2:	e2 0f       	add	r30, r18
     fd4:	f3 1f       	adc	r31, r19
     fd6:	e7 54       	subi	r30, 0x47	; 71
     fd8:	fe 4f       	sbci	r31, 0xFE	; 254
     fda:	20 91 08 01 	lds	r18, 0x0108	; 0x800108 <colors+0x6>
     fde:	30 91 09 01 	lds	r19, 0x0109	; 0x800109 <colors+0x7>
     fe2:	40 91 0a 01 	lds	r20, 0x010A	; 0x80010a <colors+0x8>
     fe6:	20 83       	st	Z, r18
     fe8:	31 83       	std	Z+1, r19	; 0x01
     fea:	42 83       	std	Z+2, r20	; 0x02
     fec:	ea ea       	ldi	r30, 0xAA	; 170
     fee:	f0 e0       	ldi	r31, 0x00	; 0
     ff0:	e4 91       	lpm	r30, Z
     ff2:	f0 e0       	ldi	r31, 0x00	; 0
     ff4:	bf 01       	movw	r22, r30
     ff6:	66 0f       	add	r22, r22
     ff8:	77 1f       	adc	r23, r23
     ffa:	e6 0f       	add	r30, r22
     ffc:	f7 1f       	adc	r31, r23
     ffe:	e7 54       	subi	r30, 0x47	; 71
    1000:	fe 4f       	sbci	r31, 0xFE	; 254
    1002:	20 83       	st	Z, r18
    1004:	31 83       	std	Z+1, r19	; 0x01
    1006:	42 83       	std	Z+2, r20	; 0x02
    1008:	01 96       	adiw	r24, 0x01	; 1
    100a:	83 30       	cpi	r24, 0x03	; 3
    100c:	91 05       	cpc	r25, r1
    100e:	b4 f2       	brlt	.-84     	; 0xfbc <menu+0x42>
    1010:	84 e0       	ldi	r24, 0x04	; 4
    1012:	90 e0       	ldi	r25, 0x00	; 0
    1014:	2a c0       	rjmp	.+84     	; 0x106a <menu+0xf0>
    1016:	fc 01       	movw	r30, r24
    1018:	ee 0f       	add	r30, r30
    101a:	ff 1f       	adc	r31, r31
    101c:	e8 58       	subi	r30, 0x88	; 136
    101e:	ff 4f       	sbci	r31, 0xFF	; 255
    1020:	e4 91       	lpm	r30, Z
    1022:	f0 e0       	ldi	r31, 0x00	; 0
    1024:	9f 01       	movw	r18, r30
    1026:	22 0f       	add	r18, r18
    1028:	33 1f       	adc	r19, r19
    102a:	e2 0f       	add	r30, r18
    102c:	f3 1f       	adc	r31, r19
    102e:	e7 54       	subi	r30, 0x47	; 71
    1030:	fe 4f       	sbci	r31, 0xFE	; 254
    1032:	20 91 0b 01 	lds	r18, 0x010B	; 0x80010b <colors+0x9>
    1036:	30 91 0c 01 	lds	r19, 0x010C	; 0x80010c <colors+0xa>
    103a:	40 91 0d 01 	lds	r20, 0x010D	; 0x80010d <colors+0xb>
    103e:	20 83       	st	Z, r18
    1040:	31 83       	std	Z+1, r19	; 0x01
    1042:	42 83       	std	Z+2, r20	; 0x02
    1044:	fc 01       	movw	r30, r24
    1046:	77 96       	adiw	r30, 0x17	; 23
    1048:	ee 0f       	add	r30, r30
    104a:	ff 1f       	adc	r31, r31
    104c:	e8 58       	subi	r30, 0x88	; 136
    104e:	ff 4f       	sbci	r31, 0xFF	; 255
    1050:	e4 91       	lpm	r30, Z
    1052:	f0 e0       	ldi	r31, 0x00	; 0
    1054:	bf 01       	movw	r22, r30
    1056:	66 0f       	add	r22, r22
    1058:	77 1f       	adc	r23, r23
    105a:	e6 0f       	add	r30, r22
    105c:	f7 1f       	adc	r31, r23
    105e:	e7 54       	subi	r30, 0x47	; 71
    1060:	fe 4f       	sbci	r31, 0xFE	; 254
    1062:	20 83       	st	Z, r18
    1064:	31 83       	std	Z+1, r19	; 0x01
    1066:	42 83       	std	Z+2, r20	; 0x02
    1068:	01 96       	adiw	r24, 0x01	; 1
    106a:	86 30       	cpi	r24, 0x06	; 6
    106c:	91 05       	cpc	r25, r1
    106e:	9c f2       	brlt	.-90     	; 0x1016 <menu+0x9c>
    1070:	85 e0       	ldi	r24, 0x05	; 5
    1072:	90 e0       	ldi	r25, 0x00	; 0
    1074:	26 c0       	rjmp	.+76     	; 0x10c2 <menu+0x148>
    1076:	fc 01       	movw	r30, r24
    1078:	ee 0f       	add	r30, r30
    107a:	ff 1f       	adc	r31, r31
    107c:	e8 58       	subi	r30, 0x88	; 136
    107e:	ff 4f       	sbci	r31, 0xFF	; 255
    1080:	e4 91       	lpm	r30, Z
    1082:	f0 e0       	ldi	r31, 0x00	; 0
    1084:	9f 01       	movw	r18, r30
    1086:	22 0f       	add	r18, r18
    1088:	33 1f       	adc	r19, r19
    108a:	e2 0f       	add	r30, r18
    108c:	f3 1f       	adc	r31, r19
    108e:	e7 54       	subi	r30, 0x47	; 71
    1090:	fe 4f       	sbci	r31, 0xFE	; 254
    1092:	20 91 0e 01 	lds	r18, 0x010E	; 0x80010e <colors+0xc>
    1096:	30 91 0f 01 	lds	r19, 0x010F	; 0x80010f <colors+0xd>
    109a:	40 91 10 01 	lds	r20, 0x0110	; 0x800110 <colors+0xe>
    109e:	20 83       	st	Z, r18
    10a0:	31 83       	std	Z+1, r19	; 0x01
    10a2:	42 83       	std	Z+2, r20	; 0x02
    10a4:	ea e9       	ldi	r30, 0x9A	; 154
    10a6:	f0 e0       	ldi	r31, 0x00	; 0
    10a8:	e4 91       	lpm	r30, Z
    10aa:	f0 e0       	ldi	r31, 0x00	; 0
    10ac:	bf 01       	movw	r22, r30
    10ae:	66 0f       	add	r22, r22
    10b0:	77 1f       	adc	r23, r23
    10b2:	e6 0f       	add	r30, r22
    10b4:	f7 1f       	adc	r31, r23
    10b6:	e7 54       	subi	r30, 0x47	; 71
    10b8:	fe 4f       	sbci	r31, 0xFE	; 254
    10ba:	20 83       	st	Z, r18
    10bc:	31 83       	std	Z+1, r19	; 0x01
    10be:	42 83       	std	Z+2, r20	; 0x02
    10c0:	01 96       	adiw	r24, 0x01	; 1
    10c2:	88 30       	cpi	r24, 0x08	; 8
    10c4:	91 05       	cpc	r25, r1
    10c6:	bc f2       	brlt	.-82     	; 0x1076 <menu+0xfc>
    10c8:	89 e0       	ldi	r24, 0x09	; 9
    10ca:	90 e0       	ldi	r25, 0x00	; 0
    10cc:	53 c0       	rjmp	.+166    	; 0x1174 <menu+0x1fa>
    10ce:	fc 01       	movw	r30, r24
    10d0:	ee 0f       	add	r30, r30
    10d2:	ff 1f       	adc	r31, r31
    10d4:	e8 58       	subi	r30, 0x88	; 136
    10d6:	ff 4f       	sbci	r31, 0xFF	; 255
    10d8:	e4 91       	lpm	r30, Z
    10da:	f0 e0       	ldi	r31, 0x00	; 0
    10dc:	9f 01       	movw	r18, r30
    10de:	22 0f       	add	r18, r18
    10e0:	33 1f       	adc	r19, r19
    10e2:	e2 0f       	add	r30, r18
    10e4:	f3 1f       	adc	r31, r19
    10e6:	e7 54       	subi	r30, 0x47	; 71
    10e8:	fe 4f       	sbci	r31, 0xFE	; 254
    10ea:	20 91 0e 01 	lds	r18, 0x010E	; 0x80010e <colors+0xc>
    10ee:	30 91 0f 01 	lds	r19, 0x010F	; 0x80010f <colors+0xd>
    10f2:	40 91 10 01 	lds	r20, 0x0110	; 0x800110 <colors+0xe>
    10f6:	20 83       	st	Z, r18
    10f8:	31 83       	std	Z+1, r19	; 0x01
    10fa:	42 83       	std	Z+2, r20	; 0x02
    10fc:	e6 ea       	ldi	r30, 0xA6	; 166
    10fe:	f0 e0       	ldi	r31, 0x00	; 0
    1100:	e4 91       	lpm	r30, Z
    1102:	f0 e0       	ldi	r31, 0x00	; 0
    1104:	bf 01       	movw	r22, r30
    1106:	66 0f       	add	r22, r22
    1108:	77 1f       	adc	r23, r23
    110a:	e6 0f       	add	r30, r22
    110c:	f7 1f       	adc	r31, r23
    110e:	e7 54       	subi	r30, 0x47	; 71
    1110:	fe 4f       	sbci	r31, 0xFE	; 254
    1112:	20 83       	st	Z, r18
    1114:	31 83       	std	Z+1, r19	; 0x01
    1116:	42 83       	std	Z+2, r20	; 0x02
    1118:	8b 30       	cpi	r24, 0x0B	; 11
    111a:	91 05       	cpc	r25, r1
    111c:	54 f5       	brge	.+84     	; 0x1172 <menu+0x1f8>
    111e:	fc 01       	movw	r30, r24
    1120:	3c 96       	adiw	r30, 0x0c	; 12
    1122:	ee 0f       	add	r30, r30
    1124:	ff 1f       	adc	r31, r31
    1126:	e8 58       	subi	r30, 0x88	; 136
    1128:	ff 4f       	sbci	r31, 0xFF	; 255
    112a:	e4 91       	lpm	r30, Z
    112c:	f0 e0       	ldi	r31, 0x00	; 0
    112e:	9f 01       	movw	r18, r30
    1130:	22 0f       	add	r18, r18
    1132:	33 1f       	adc	r19, r19
    1134:	e2 0f       	add	r30, r18
    1136:	f3 1f       	adc	r31, r19
    1138:	e7 54       	subi	r30, 0x47	; 71
    113a:	fe 4f       	sbci	r31, 0xFE	; 254
    113c:	20 91 11 01 	lds	r18, 0x0111	; 0x800111 <colors+0xf>
    1140:	30 91 12 01 	lds	r19, 0x0112	; 0x800112 <colors+0x10>
    1144:	40 91 13 01 	lds	r20, 0x0113	; 0x800113 <colors+0x11>
    1148:	20 83       	st	Z, r18
    114a:	31 83       	std	Z+1, r19	; 0x01
    114c:	42 83       	std	Z+2, r20	; 0x02
    114e:	fc 01       	movw	r30, r24
    1150:	78 96       	adiw	r30, 0x18	; 24
    1152:	ee 0f       	add	r30, r30
    1154:	ff 1f       	adc	r31, r31
    1156:	e8 58       	subi	r30, 0x88	; 136
    1158:	ff 4f       	sbci	r31, 0xFF	; 255
    115a:	e4 91       	lpm	r30, Z
    115c:	f0 e0       	ldi	r31, 0x00	; 0
    115e:	bf 01       	movw	r22, r30
    1160:	66 0f       	add	r22, r22
    1162:	77 1f       	adc	r23, r23
    1164:	e6 0f       	add	r30, r22
    1166:	f7 1f       	adc	r31, r23
    1168:	e7 54       	subi	r30, 0x47	; 71
    116a:	fe 4f       	sbci	r31, 0xFE	; 254
    116c:	20 83       	st	Z, r18
    116e:	31 83       	std	Z+1, r19	; 0x01
    1170:	42 83       	std	Z+2, r20	; 0x02
    1172:	01 96       	adiw	r24, 0x01	; 1
    1174:	8c 30       	cpi	r24, 0x0C	; 12
    1176:	91 05       	cpc	r25, r1
    1178:	0c f4       	brge	.+2      	; 0x117c <menu+0x202>
    117a:	a9 cf       	rjmp	.-174    	; 0x10ce <menu+0x154>
    117c:	6c e2       	ldi	r22, 0x2C	; 44
    117e:	71 e0       	ldi	r23, 0x01	; 1
    1180:	89 eb       	ldi	r24, 0xB9	; 185
    1182:	91 e0       	ldi	r25, 0x01	; 1
    1184:	0e 94 cb 01 	call	0x396	; 0x396 <ws2812_setleds>
    1188:	08 95       	ret

0000118a <fallActiveBrick>:
    118a:	e0 91 ab 01 	lds	r30, 0x01AB	; 0x8001ab <speed>
    118e:	8e 2f       	mov	r24, r30
    1190:	90 e0       	ldi	r25, 0x00	; 0
    1192:	88 30       	cpi	r24, 0x08	; 8
    1194:	91 05       	cpc	r25, r1
    1196:	08 f0       	brcs	.+2      	; 0x119a <fallActiveBrick+0x10>
    1198:	6c c0       	rjmp	.+216    	; 0x1272 <fallActiveBrick+0xe8>
    119a:	fc 01       	movw	r30, r24
    119c:	ec 5c       	subi	r30, 0xCC	; 204
    119e:	ff 4f       	sbci	r31, 0xFF	; 255
    11a0:	0c 94 c6 0e 	jmp	0x1d8c	; 0x1d8c <__tablejump2__>
    11a4:	2f ef       	ldi	r18, 0xFF	; 255
    11a6:	89 e6       	ldi	r24, 0x69	; 105
    11a8:	98 e1       	ldi	r25, 0x18	; 24
    11aa:	21 50       	subi	r18, 0x01	; 1
    11ac:	80 40       	sbci	r24, 0x00	; 0
    11ae:	90 40       	sbci	r25, 0x00	; 0
    11b0:	e1 f7       	brne	.-8      	; 0x11aa <fallActiveBrick+0x20>
    11b2:	00 c0       	rjmp	.+0      	; 0x11b4 <fallActiveBrick+0x2a>
    11b4:	00 00       	nop
    11b6:	84 e6       	ldi	r24, 0x64	; 100
    11b8:	0e 94 95 06 	call	0xd2a	; 0xd2a <shiftActiveBrick>
    11bc:	08 95       	ret
    11be:	2f ef       	ldi	r18, 0xFF	; 255
    11c0:	88 ef       	ldi	r24, 0xF8	; 248
    11c2:	95 e1       	ldi	r25, 0x15	; 21
    11c4:	21 50       	subi	r18, 0x01	; 1
    11c6:	80 40       	sbci	r24, 0x00	; 0
    11c8:	90 40       	sbci	r25, 0x00	; 0
    11ca:	e1 f7       	brne	.-8      	; 0x11c4 <fallActiveBrick+0x3a>
    11cc:	00 c0       	rjmp	.+0      	; 0x11ce <fallActiveBrick+0x44>
    11ce:	00 00       	nop
    11d0:	84 e6       	ldi	r24, 0x64	; 100
    11d2:	0e 94 95 06 	call	0xd2a	; 0xd2a <shiftActiveBrick>
    11d6:	08 95       	ret
    11d8:	2f ef       	ldi	r18, 0xFF	; 255
    11da:	86 e1       	ldi	r24, 0x16	; 22
    11dc:	91 e1       	ldi	r25, 0x11	; 17
    11de:	21 50       	subi	r18, 0x01	; 1
    11e0:	80 40       	sbci	r24, 0x00	; 0
    11e2:	90 40       	sbci	r25, 0x00	; 0
    11e4:	e1 f7       	brne	.-8      	; 0x11de <fallActiveBrick+0x54>
    11e6:	00 c0       	rjmp	.+0      	; 0x11e8 <fallActiveBrick+0x5e>
    11e8:	00 00       	nop
    11ea:	84 e6       	ldi	r24, 0x64	; 100
    11ec:	0e 94 95 06 	call	0xd2a	; 0xd2a <shiftActiveBrick>
    11f0:	08 95       	ret
    11f2:	2f ef       	ldi	r18, 0xFF	; 255
    11f4:	85 ea       	ldi	r24, 0xA5	; 165
    11f6:	9e e0       	ldi	r25, 0x0E	; 14
    11f8:	21 50       	subi	r18, 0x01	; 1
    11fa:	80 40       	sbci	r24, 0x00	; 0
    11fc:	90 40       	sbci	r25, 0x00	; 0
    11fe:	e1 f7       	brne	.-8      	; 0x11f8 <fallActiveBrick+0x6e>
    1200:	00 c0       	rjmp	.+0      	; 0x1202 <fallActiveBrick+0x78>
    1202:	00 00       	nop
    1204:	84 e6       	ldi	r24, 0x64	; 100
    1206:	0e 94 95 06 	call	0xd2a	; 0xd2a <shiftActiveBrick>
    120a:	08 95       	ret
    120c:	2f ef       	ldi	r18, 0xFF	; 255
    120e:	84 e3       	ldi	r24, 0x34	; 52
    1210:	9c e0       	ldi	r25, 0x0C	; 12
    1212:	21 50       	subi	r18, 0x01	; 1
    1214:	80 40       	sbci	r24, 0x00	; 0
    1216:	90 40       	sbci	r25, 0x00	; 0
    1218:	e1 f7       	brne	.-8      	; 0x1212 <fallActiveBrick+0x88>
    121a:	00 c0       	rjmp	.+0      	; 0x121c <fallActiveBrick+0x92>
    121c:	00 00       	nop
    121e:	84 e6       	ldi	r24, 0x64	; 100
    1220:	0e 94 95 06 	call	0xd2a	; 0xd2a <shiftActiveBrick>
    1224:	08 95       	ret
    1226:	2f ef       	ldi	r18, 0xFF	; 255
    1228:	83 ec       	ldi	r24, 0xC3	; 195
    122a:	99 e0       	ldi	r25, 0x09	; 9
    122c:	21 50       	subi	r18, 0x01	; 1
    122e:	80 40       	sbci	r24, 0x00	; 0
    1230:	90 40       	sbci	r25, 0x00	; 0
    1232:	e1 f7       	brne	.-8      	; 0x122c <fallActiveBrick+0xa2>
    1234:	00 c0       	rjmp	.+0      	; 0x1236 <fallActiveBrick+0xac>
    1236:	00 00       	nop
    1238:	84 e6       	ldi	r24, 0x64	; 100
    123a:	0e 94 95 06 	call	0xd2a	; 0xd2a <shiftActiveBrick>
    123e:	08 95       	ret
    1240:	2f ef       	ldi	r18, 0xFF	; 255
    1242:	82 e5       	ldi	r24, 0x52	; 82
    1244:	97 e0       	ldi	r25, 0x07	; 7
    1246:	21 50       	subi	r18, 0x01	; 1
    1248:	80 40       	sbci	r24, 0x00	; 0
    124a:	90 40       	sbci	r25, 0x00	; 0
    124c:	e1 f7       	brne	.-8      	; 0x1246 <fallActiveBrick+0xbc>
    124e:	00 c0       	rjmp	.+0      	; 0x1250 <fallActiveBrick+0xc6>
    1250:	00 00       	nop
    1252:	84 e6       	ldi	r24, 0x64	; 100
    1254:	0e 94 95 06 	call	0xd2a	; 0xd2a <shiftActiveBrick>
    1258:	08 95       	ret
    125a:	2f ef       	ldi	r18, 0xFF	; 255
    125c:	81 ee       	ldi	r24, 0xE1	; 225
    125e:	94 e0       	ldi	r25, 0x04	; 4
    1260:	21 50       	subi	r18, 0x01	; 1
    1262:	80 40       	sbci	r24, 0x00	; 0
    1264:	90 40       	sbci	r25, 0x00	; 0
    1266:	e1 f7       	brne	.-8      	; 0x1260 <fallActiveBrick+0xd6>
    1268:	00 c0       	rjmp	.+0      	; 0x126a <fallActiveBrick+0xe0>
    126a:	00 00       	nop
    126c:	84 e6       	ldi	r24, 0x64	; 100
    126e:	0e 94 95 06 	call	0xd2a	; 0xd2a <shiftActiveBrick>
    1272:	08 95       	ret

00001274 <forcedown>:
    1274:	cf 93       	push	r28
    1276:	df 93       	push	r29
    1278:	17 c0       	rjmp	.+46     	; 0x12a8 <forcedown+0x34>
    127a:	ce e3       	ldi	r28, 0x3E	; 62
    127c:	d5 e0       	ldi	r29, 0x05	; 5
    127e:	81 50       	subi	r24, 0x01	; 1
    1280:	8a 83       	std	Y+2, r24	; 0x02
    1282:	0e 94 24 04 	call	0x848	; 0x848 <printField>
    1286:	8a 81       	ldd	r24, Y+2	; 0x02
    1288:	88 23       	and	r24, r24
    128a:	29 f0       	breq	.+10     	; 0x1296 <forcedown+0x22>
    128c:	ce 01       	movw	r24, r28
    128e:	0e 94 68 03 	call	0x6d0	; 0x6d0 <checkFieldCollision>
    1292:	89 2b       	or	r24, r25
    1294:	49 f0       	breq	.+18     	; 0x12a8 <forcedown+0x34>
    1296:	0e 94 f5 02 	call	0x5ea	; 0x5ea <addActiveBrickToField>
    129a:	10 92 3e 05 	sts	0x053E, r1	; 0x80053e <activeBrick>
    129e:	0e 94 24 04 	call	0x848	; 0x848 <printField>
    12a2:	0e 94 11 05 	call	0xa22	; 0xa22 <newActiveBrick>
    12a6:	04 c0       	rjmp	.+8      	; 0x12b0 <forcedown+0x3c>
    12a8:	80 91 40 05 	lds	r24, 0x0540	; 0x800540 <activeBrick+0x2>
    12ac:	81 11       	cpse	r24, r1
    12ae:	e5 cf       	rjmp	.-54     	; 0x127a <forcedown+0x6>
    12b0:	df 91       	pop	r29
    12b2:	cf 91       	pop	r28
    12b4:	08 95       	ret

000012b6 <sliding_menu>:
		}
	}
*/
void sliding_menu()
{
	byte i = 0;
    12b6:	c0 e0       	ldi	r28, 0x00	; 0
		// T  
		
		int offset_impar = 1;
		int offset_par = (column - 1) - offset_impar;
		
		for (byte T = 0; T < 5; T++)
    12b8:	80 e0       	ldi	r24, 0x00	; 0
    12ba:	1e c0       	rjmp	.+60     	; 0x12f8 <sliding_menu+0x42>
		{
			led[pgm_read_byte(&(matrix[row_title][offset_impar + i + T]))] = colors[7];		// IMPAR
    12bc:	ec 2f       	mov	r30, r28
    12be:	f0 e0       	ldi	r31, 0x00	; 0
    12c0:	31 96       	adiw	r30, 0x01	; 1
    12c2:	e8 0f       	add	r30, r24
    12c4:	f1 1d       	adc	r31, r1
    12c6:	ec 54       	subi	r30, 0x4C	; 76
    12c8:	ff 4f       	sbci	r31, 0xFF	; 255
    12ca:	ee 0f       	add	r30, r30
    12cc:	ff 1f       	adc	r31, r31
    12ce:	e8 58       	subi	r30, 0x88	; 136
    12d0:	ff 4f       	sbci	r31, 0xFF	; 255
    12d2:	e4 91       	lpm	r30, Z
    12d4:	f0 e0       	ldi	r31, 0x00	; 0
    12d6:	9f 01       	movw	r18, r30
    12d8:	22 0f       	add	r18, r18
    12da:	33 1f       	adc	r19, r19
    12dc:	e2 0f       	add	r30, r18
    12de:	f3 1f       	adc	r31, r19
    12e0:	e7 54       	subi	r30, 0x47	; 71
    12e2:	fe 4f       	sbci	r31, 0xFE	; 254
    12e4:	20 91 17 01 	lds	r18, 0x0117	; 0x800117 <colors+0x15>
    12e8:	30 91 18 01 	lds	r19, 0x0118	; 0x800118 <colors+0x16>
    12ec:	40 91 19 01 	lds	r20, 0x0119	; 0x800119 <colors+0x17>
    12f0:	20 83       	st	Z, r18
    12f2:	31 83       	std	Z+1, r19	; 0x01
    12f4:	42 83       	std	Z+2, r20	; 0x02
		// T  
		
		int offset_impar = 1;
		int offset_par = (column - 1) - offset_impar;
		
		for (byte T = 0; T < 5; T++)
    12f6:	8f 5f       	subi	r24, 0xFF	; 255
    12f8:	85 30       	cpi	r24, 0x05	; 5
    12fa:	00 f3       	brcs	.-64     	; 0x12bc <sliding_menu+0x6>
		{
			led[pgm_read_byte(&(matrix[row_title][offset_impar + i + T]))] = colors[7];		// IMPAR
		}
		led[pgm_read_byte(&(matrix[row_title][offset_impar + i - 1]))] = led_off;
    12fc:	8c 2f       	mov	r24, r28
    12fe:	90 e0       	ldi	r25, 0x00	; 0
    1300:	fc 01       	movw	r30, r24
    1302:	ec 54       	subi	r30, 0x4C	; 76
    1304:	ff 4f       	sbci	r31, 0xFF	; 255
    1306:	ee 0f       	add	r30, r30
    1308:	ff 1f       	adc	r31, r31
    130a:	e8 58       	subi	r30, 0x88	; 136
    130c:	ff 4f       	sbci	r31, 0xFF	; 255
    130e:	e4 91       	lpm	r30, Z
    1310:	f0 e0       	ldi	r31, 0x00	; 0
    1312:	9f 01       	movw	r18, r30
    1314:	22 0f       	add	r18, r18
    1316:	33 1f       	adc	r19, r19
    1318:	e2 0f       	add	r30, r18
    131a:	f3 1f       	adc	r31, r19
    131c:	e7 54       	subi	r30, 0x47	; 71
    131e:	fe 4f       	sbci	r31, 0xFE	; 254
    1320:	c0 90 a5 01 	lds	r12, 0x01A5	; 0x8001a5 <led_off>
    1324:	d0 90 a6 01 	lds	r13, 0x01A6	; 0x8001a6 <led_off+0x1>
    1328:	e0 90 a7 01 	lds	r14, 0x01A7	; 0x8001a7 <led_off+0x2>
    132c:	c0 82       	st	Z, r12
    132e:	d1 82       	std	Z+1, r13	; 0x01
    1330:	e2 82       	std	Z+2, r14	; 0x02
	
		offset_impar += 2; // 3
		offset_par = (column - 1) - offset_impar;
		
		led[pgm_read_byte(&(matrix[row_title - 1][offset_par - i]))] = colors[5];			// PAR
    1332:	48 e0       	ldi	r20, 0x08	; 8
    1334:	50 e0       	ldi	r21, 0x00	; 0
    1336:	48 1b       	sub	r20, r24
    1338:	59 0b       	sbc	r21, r25
    133a:	fa 01       	movw	r30, r20
    133c:	e8 55       	subi	r30, 0x58	; 88
    133e:	ff 4f       	sbci	r31, 0xFF	; 255
    1340:	ee 0f       	add	r30, r30
    1342:	ff 1f       	adc	r31, r31
    1344:	e8 58       	subi	r30, 0x88	; 136
    1346:	ff 4f       	sbci	r31, 0xFF	; 255
    1348:	e4 91       	lpm	r30, Z
    134a:	f0 e0       	ldi	r31, 0x00	; 0
    134c:	9f 01       	movw	r18, r30
    134e:	22 0f       	add	r18, r18
    1350:	33 1f       	adc	r19, r19
    1352:	e2 0f       	add	r30, r18
    1354:	f3 1f       	adc	r31, r19
    1356:	e7 54       	subi	r30, 0x47	; 71
    1358:	fe 4f       	sbci	r31, 0xFE	; 254
    135a:	a2 e0       	ldi	r26, 0x02	; 2
    135c:	b1 e0       	ldi	r27, 0x01	; 1
    135e:	1f 96       	adiw	r26, 0x0f	; 15
    1360:	6d 90       	ld	r6, X+
    1362:	7d 90       	ld	r7, X+
    1364:	8c 90       	ld	r8, X
    1366:	51 97       	sbiw	r26, 0x11	; 17
    1368:	60 82       	st	Z, r6
    136a:	71 82       	std	Z+1, r7	; 0x01
    136c:	82 82       	std	Z+2, r8	; 0x02
		led[pgm_read_byte(&(matrix[row_title - 1][offset_par - i + 1]))] = led_off;
    136e:	29 e0       	ldi	r18, 0x09	; 9
    1370:	30 e0       	ldi	r19, 0x00	; 0
    1372:	28 1b       	sub	r18, r24
    1374:	39 0b       	sbc	r19, r25
    1376:	f9 01       	movw	r30, r18
    1378:	e8 55       	subi	r30, 0x58	; 88
    137a:	ff 4f       	sbci	r31, 0xFF	; 255
    137c:	ee 0f       	add	r30, r30
    137e:	ff 1f       	adc	r31, r31
    1380:	e8 58       	subi	r30, 0x88	; 136
    1382:	ff 4f       	sbci	r31, 0xFF	; 255
    1384:	e4 91       	lpm	r30, Z
    1386:	f0 e0       	ldi	r31, 0x00	; 0
    1388:	bf 01       	movw	r22, r30
    138a:	66 0f       	add	r22, r22
    138c:	77 1f       	adc	r23, r23
    138e:	e6 0f       	add	r30, r22
    1390:	f7 1f       	adc	r31, r23
    1392:	e7 54       	subi	r30, 0x47	; 71
    1394:	fe 4f       	sbci	r31, 0xFE	; 254
    1396:	c0 82       	st	Z, r12
    1398:	d1 82       	std	Z+1, r13	; 0x01
    139a:	e2 82       	std	Z+2, r14	; 0x02
		
		led[pgm_read_byte(&(matrix[row_title - 2][offset_impar + i]))] = colors[7];			// IMPAR
    139c:	fc 01       	movw	r30, r24
    139e:	e1 56       	subi	r30, 0x61	; 97
    13a0:	ff 4f       	sbci	r31, 0xFF	; 255
    13a2:	ee 0f       	add	r30, r30
    13a4:	ff 1f       	adc	r31, r31
    13a6:	e8 58       	subi	r30, 0x88	; 136
    13a8:	ff 4f       	sbci	r31, 0xFF	; 255
    13aa:	e4 91       	lpm	r30, Z
    13ac:	f0 e0       	ldi	r31, 0x00	; 0
    13ae:	bf 01       	movw	r22, r30
    13b0:	66 0f       	add	r22, r22
    13b2:	77 1f       	adc	r23, r23
    13b4:	e6 0f       	add	r30, r22
    13b6:	f7 1f       	adc	r31, r23
    13b8:	e7 54       	subi	r30, 0x47	; 71
    13ba:	fe 4f       	sbci	r31, 0xFE	; 254
    13bc:	55 96       	adiw	r26, 0x15	; 21
    13be:	2d 90       	ld	r2, X+
    13c0:	3d 90       	ld	r3, X+
    13c2:	4c 90       	ld	r4, X
    13c4:	20 82       	st	Z, r2
    13c6:	31 82       	std	Z+1, r3	; 0x01
    13c8:	42 82       	std	Z+2, r4	; 0x02
		led[pgm_read_byte(&(matrix[row_title - 2][offset_impar + i - 1]))] = led_off;
    13ca:	fc 01       	movw	r30, r24
    13cc:	e2 56       	subi	r30, 0x62	; 98
    13ce:	ff 4f       	sbci	r31, 0xFF	; 255
    13d0:	ee 0f       	add	r30, r30
    13d2:	ff 1f       	adc	r31, r31
    13d4:	e8 58       	subi	r30, 0x88	; 136
    13d6:	ff 4f       	sbci	r31, 0xFF	; 255
    13d8:	e4 91       	lpm	r30, Z
    13da:	f0 e0       	ldi	r31, 0x00	; 0
    13dc:	bf 01       	movw	r22, r30
    13de:	66 0f       	add	r22, r22
    13e0:	77 1f       	adc	r23, r23
    13e2:	e6 0f       	add	r30, r22
    13e4:	f7 1f       	adc	r31, r23
    13e6:	e7 54       	subi	r30, 0x47	; 71
    13e8:	fe 4f       	sbci	r31, 0xFE	; 254
    13ea:	c0 82       	st	Z, r12
    13ec:	d1 82       	std	Z+1, r13	; 0x01
    13ee:	e2 82       	std	Z+2, r14	; 0x02
		
		led[pgm_read_byte(&(matrix[row_title - 3][offset_par - i]))] = colors[5];			// PAR
    13f0:	fa 01       	movw	r30, r20
    13f2:	e0 57       	subi	r30, 0x70	; 112
    13f4:	ff 4f       	sbci	r31, 0xFF	; 255
    13f6:	ee 0f       	add	r30, r30
    13f8:	ff 1f       	adc	r31, r31
    13fa:	e8 58       	subi	r30, 0x88	; 136
    13fc:	ff 4f       	sbci	r31, 0xFF	; 255
    13fe:	e4 91       	lpm	r30, Z
    1400:	f0 e0       	ldi	r31, 0x00	; 0
    1402:	af 01       	movw	r20, r30
    1404:	44 0f       	add	r20, r20
    1406:	55 1f       	adc	r21, r21
    1408:	e4 0f       	add	r30, r20
    140a:	f5 1f       	adc	r31, r21
    140c:	e7 54       	subi	r30, 0x47	; 71
    140e:	fe 4f       	sbci	r31, 0xFE	; 254
    1410:	60 82       	st	Z, r6
    1412:	71 82       	std	Z+1, r7	; 0x01
    1414:	82 82       	std	Z+2, r8	; 0x02
		led[pgm_read_byte(&(matrix[row_title - 3][offset_par - i + 1]))] = led_off;
    1416:	f9 01       	movw	r30, r18
    1418:	e0 57       	subi	r30, 0x70	; 112
    141a:	ff 4f       	sbci	r31, 0xFF	; 255
    141c:	ee 0f       	add	r30, r30
    141e:	ff 1f       	adc	r31, r31
    1420:	e8 58       	subi	r30, 0x88	; 136
    1422:	ff 4f       	sbci	r31, 0xFF	; 255
    1424:	e4 91       	lpm	r30, Z
    1426:	f0 e0       	ldi	r31, 0x00	; 0
    1428:	9f 01       	movw	r18, r30
    142a:	22 0f       	add	r18, r18
    142c:	33 1f       	adc	r19, r19
    142e:	e2 0f       	add	r30, r18
    1430:	f3 1f       	adc	r31, r19
    1432:	e7 54       	subi	r30, 0x47	; 71
    1434:	fe 4f       	sbci	r31, 0xFE	; 254
    1436:	c0 82       	st	Z, r12
    1438:	d1 82       	std	Z+1, r13	; 0x01
    143a:	e2 82       	std	Z+2, r14	; 0x02
		
		led[pgm_read_byte(&(matrix[row_title - 4][offset_impar + i]))] = colors[7];			// IMPAR
    143c:	fc 01       	movw	r30, r24
    143e:	e9 57       	subi	r30, 0x79	; 121
    1440:	ff 4f       	sbci	r31, 0xFF	; 255
    1442:	ee 0f       	add	r30, r30
    1444:	ff 1f       	adc	r31, r31
    1446:	e8 58       	subi	r30, 0x88	; 136
    1448:	ff 4f       	sbci	r31, 0xFF	; 255
    144a:	e4 91       	lpm	r30, Z
    144c:	f0 e0       	ldi	r31, 0x00	; 0
    144e:	9f 01       	movw	r18, r30
    1450:	22 0f       	add	r18, r18
    1452:	33 1f       	adc	r19, r19
    1454:	e2 0f       	add	r30, r18
    1456:	f3 1f       	adc	r31, r19
    1458:	e7 54       	subi	r30, 0x47	; 71
    145a:	fe 4f       	sbci	r31, 0xFE	; 254
    145c:	20 82       	st	Z, r2
    145e:	31 82       	std	Z+1, r3	; 0x01
    1460:	42 82       	std	Z+2, r4	; 0x02
		led[pgm_read_byte(&(matrix[row_title - 4][offset_impar + i - 1]))] = led_off;
    1462:	fc 01       	movw	r30, r24
    1464:	ea 57       	subi	r30, 0x7A	; 122
    1466:	ff 4f       	sbci	r31, 0xFF	; 255
    1468:	ee 0f       	add	r30, r30
    146a:	ff 1f       	adc	r31, r31
    146c:	e8 58       	subi	r30, 0x88	; 136
    146e:	ff 4f       	sbci	r31, 0xFF	; 255
    1470:	e4 91       	lpm	r30, Z
    1472:	f0 e0       	ldi	r31, 0x00	; 0
    1474:	9f 01       	movw	r18, r30
    1476:	22 0f       	add	r18, r18
    1478:	33 1f       	adc	r19, r19
    147a:	e2 0f       	add	r30, r18
    147c:	f3 1f       	adc	r31, r19
    147e:	e7 54       	subi	r30, 0x47	; 71
    1480:	fe 4f       	sbci	r31, 0xFE	; 254
    1482:	c0 82       	st	Z, r12
    1484:	d1 82       	std	Z+1, r13	; 0x01
    1486:	e2 82       	std	Z+2, r14	; 0x02
		// E
		
		offset_impar = -3; 
		offset_par = (column - 1) + 1; // 12
		
		for (int e = 0; e < 3; e++)
    1488:	40 e0       	ldi	r20, 0x00	; 0
    148a:	50 e0       	ldi	r21, 0x00	; 0
    148c:	46 c0       	rjmp	.+140    	; 0x151a <sliding_menu+0x264>
		{
			led[pgm_read_byte(&(matrix[row_title][offset_impar + i + e]))] = colors[2];		// IMPAR
    148e:	9c 01       	movw	r18, r24
    1490:	23 50       	subi	r18, 0x03	; 3
    1492:	31 09       	sbc	r19, r1
    1494:	24 0f       	add	r18, r20
    1496:	35 1f       	adc	r19, r21
    1498:	f9 01       	movw	r30, r18
    149a:	ec 54       	subi	r30, 0x4C	; 76
    149c:	ff 4f       	sbci	r31, 0xFF	; 255
    149e:	ee 0f       	add	r30, r30
    14a0:	ff 1f       	adc	r31, r31
    14a2:	e8 58       	subi	r30, 0x88	; 136
    14a4:	ff 4f       	sbci	r31, 0xFF	; 255
    14a6:	e4 91       	lpm	r30, Z
    14a8:	f0 e0       	ldi	r31, 0x00	; 0
    14aa:	bf 01       	movw	r22, r30
    14ac:	66 0f       	add	r22, r22
    14ae:	77 1f       	adc	r23, r23
    14b0:	e6 0f       	add	r30, r22
    14b2:	f7 1f       	adc	r31, r23
    14b4:	e7 54       	subi	r30, 0x47	; 71
    14b6:	fe 4f       	sbci	r31, 0xFE	; 254
    14b8:	c0 90 08 01 	lds	r12, 0x0108	; 0x800108 <colors+0x6>
    14bc:	d0 90 09 01 	lds	r13, 0x0109	; 0x800109 <colors+0x7>
    14c0:	e0 90 0a 01 	lds	r14, 0x010A	; 0x80010a <colors+0x8>
    14c4:	c0 82       	st	Z, r12
    14c6:	d1 82       	std	Z+1, r13	; 0x01
    14c8:	e2 82       	std	Z+2, r14	; 0x02
		
			led[pgm_read_byte(&(matrix[row_title - 2][offset_impar + i + e]))] = colors[2];	// IMPAR
    14ca:	f9 01       	movw	r30, r18
    14cc:	e4 56       	subi	r30, 0x64	; 100
    14ce:	ff 4f       	sbci	r31, 0xFF	; 255
    14d0:	ee 0f       	add	r30, r30
    14d2:	ff 1f       	adc	r31, r31
    14d4:	e8 58       	subi	r30, 0x88	; 136
    14d6:	ff 4f       	sbci	r31, 0xFF	; 255
    14d8:	e4 91       	lpm	r30, Z
    14da:	f0 e0       	ldi	r31, 0x00	; 0
    14dc:	bf 01       	movw	r22, r30
    14de:	66 0f       	add	r22, r22
    14e0:	77 1f       	adc	r23, r23
    14e2:	e6 0f       	add	r30, r22
    14e4:	f7 1f       	adc	r31, r23
    14e6:	e7 54       	subi	r30, 0x47	; 71
    14e8:	fe 4f       	sbci	r31, 0xFE	; 254
    14ea:	c0 82       	st	Z, r12
    14ec:	d1 82       	std	Z+1, r13	; 0x01
    14ee:	e2 82       	std	Z+2, r14	; 0x02
			
			led[pgm_read_byte(&(matrix[row_title - 4][offset_impar + i + e]))] = colors[2];	// IMPAR
    14f0:	f9 01       	movw	r30, r18
    14f2:	ec 57       	subi	r30, 0x7C	; 124
    14f4:	ff 4f       	sbci	r31, 0xFF	; 255
    14f6:	ee 0f       	add	r30, r30
    14f8:	ff 1f       	adc	r31, r31
    14fa:	e8 58       	subi	r30, 0x88	; 136
    14fc:	ff 4f       	sbci	r31, 0xFF	; 255
    14fe:	e4 91       	lpm	r30, Z
    1500:	f0 e0       	ldi	r31, 0x00	; 0
    1502:	9f 01       	movw	r18, r30
    1504:	22 0f       	add	r18, r18
    1506:	33 1f       	adc	r19, r19
    1508:	e2 0f       	add	r30, r18
    150a:	f3 1f       	adc	r31, r19
    150c:	e7 54       	subi	r30, 0x47	; 71
    150e:	fe 4f       	sbci	r31, 0xFE	; 254
    1510:	c0 82       	st	Z, r12
    1512:	d1 82       	std	Z+1, r13	; 0x01
    1514:	e2 82       	std	Z+2, r14	; 0x02
		// E
		
		offset_impar = -3; 
		offset_par = (column - 1) + 1; // 12
		
		for (int e = 0; e < 3; e++)
    1516:	4f 5f       	subi	r20, 0xFF	; 255
    1518:	5f 4f       	sbci	r21, 0xFF	; 255
    151a:	43 30       	cpi	r20, 0x03	; 3
    151c:	51 05       	cpc	r21, r1
    151e:	0c f4       	brge	.+2      	; 0x1522 <sliding_menu+0x26c>
    1520:	b6 cf       	rjmp	.-148    	; 0x148e <sliding_menu+0x1d8>
		
			led[pgm_read_byte(&(matrix[row_title - 2][offset_impar + i + e]))] = colors[2];	// IMPAR
			
			led[pgm_read_byte(&(matrix[row_title - 4][offset_impar + i + e]))] = colors[2];	// IMPAR
		}
		led[pgm_read_byte(&(matrix[row_title][offset_impar + i - 1]))] = led_off;
    1522:	fc 01       	movw	r30, r24
    1524:	e0 55       	subi	r30, 0x50	; 80
    1526:	ff 4f       	sbci	r31, 0xFF	; 255
    1528:	ee 0f       	add	r30, r30
    152a:	ff 1f       	adc	r31, r31
    152c:	e8 58       	subi	r30, 0x88	; 136
    152e:	ff 4f       	sbci	r31, 0xFF	; 255
    1530:	e4 91       	lpm	r30, Z
    1532:	f0 e0       	ldi	r31, 0x00	; 0
    1534:	9f 01       	movw	r18, r30
    1536:	22 0f       	add	r18, r18
    1538:	33 1f       	adc	r19, r19
    153a:	e2 0f       	add	r30, r18
    153c:	f3 1f       	adc	r31, r19
    153e:	e7 54       	subi	r30, 0x47	; 71
    1540:	fe 4f       	sbci	r31, 0xFE	; 254
    1542:	c0 90 a5 01 	lds	r12, 0x01A5	; 0x8001a5 <led_off>
    1546:	d0 90 a6 01 	lds	r13, 0x01A6	; 0x8001a6 <led_off+0x1>
    154a:	e0 90 a7 01 	lds	r14, 0x01A7	; 0x8001a7 <led_off+0x2>
    154e:	c0 82       	st	Z, r12
    1550:	d1 82       	std	Z+1, r13	; 0x01
    1552:	e2 82       	std	Z+2, r14	; 0x02
		led[pgm_read_byte(&(matrix[row_title - 2][offset_impar + i - 1]))] = led_off;
    1554:	fc 01       	movw	r30, r24
    1556:	e8 56       	subi	r30, 0x68	; 104
    1558:	ff 4f       	sbci	r31, 0xFF	; 255
    155a:	ee 0f       	add	r30, r30
    155c:	ff 1f       	adc	r31, r31
    155e:	e8 58       	subi	r30, 0x88	; 136
    1560:	ff 4f       	sbci	r31, 0xFF	; 255
    1562:	e4 91       	lpm	r30, Z
    1564:	f0 e0       	ldi	r31, 0x00	; 0
    1566:	9f 01       	movw	r18, r30
    1568:	22 0f       	add	r18, r18
    156a:	33 1f       	adc	r19, r19
    156c:	e2 0f       	add	r30, r18
    156e:	f3 1f       	adc	r31, r19
    1570:	e7 54       	subi	r30, 0x47	; 71
    1572:	fe 4f       	sbci	r31, 0xFE	; 254
    1574:	c0 82       	st	Z, r12
    1576:	d1 82       	std	Z+1, r13	; 0x01
    1578:	e2 82       	std	Z+2, r14	; 0x02
		led[pgm_read_byte(&(matrix[row_title - 4][offset_impar + i - 1]))] = led_off;
    157a:	fc 01       	movw	r30, r24
    157c:	e0 58       	subi	r30, 0x80	; 128
    157e:	ff 4f       	sbci	r31, 0xFF	; 255
    1580:	ee 0f       	add	r30, r30
    1582:	ff 1f       	adc	r31, r31
    1584:	e8 58       	subi	r30, 0x88	; 136
    1586:	ff 4f       	sbci	r31, 0xFF	; 255
    1588:	e4 91       	lpm	r30, Z
    158a:	f0 e0       	ldi	r31, 0x00	; 0
    158c:	9f 01       	movw	r18, r30
    158e:	22 0f       	add	r18, r18
    1590:	33 1f       	adc	r19, r19
    1592:	e2 0f       	add	r30, r18
    1594:	f3 1f       	adc	r31, r19
    1596:	e7 54       	subi	r30, 0x47	; 71
    1598:	fe 4f       	sbci	r31, 0xFE	; 254
    159a:	c0 82       	st	Z, r12
    159c:	d1 82       	std	Z+1, r13	; 0x01
    159e:	e2 82       	std	Z+2, r14	; 0x02
		
		led[pgm_read_byte(&(matrix[row_title - 1][offset_par - i]))] = colors[4];			// PAR
    15a0:	4c e0       	ldi	r20, 0x0C	; 12
    15a2:	50 e0       	ldi	r21, 0x00	; 0
    15a4:	48 1b       	sub	r20, r24
    15a6:	59 0b       	sbc	r21, r25
    15a8:	fa 01       	movw	r30, r20
    15aa:	e8 55       	subi	r30, 0x58	; 88
    15ac:	ff 4f       	sbci	r31, 0xFF	; 255
    15ae:	ee 0f       	add	r30, r30
    15b0:	ff 1f       	adc	r31, r31
    15b2:	e8 58       	subi	r30, 0x88	; 136
    15b4:	ff 4f       	sbci	r31, 0xFF	; 255
    15b6:	e4 91       	lpm	r30, Z
    15b8:	f0 e0       	ldi	r31, 0x00	; 0
    15ba:	9f 01       	movw	r18, r30
    15bc:	22 0f       	add	r18, r18
    15be:	33 1f       	adc	r19, r19
    15c0:	e2 0f       	add	r30, r18
    15c2:	f3 1f       	adc	r31, r19
    15c4:	e7 54       	subi	r30, 0x47	; 71
    15c6:	fe 4f       	sbci	r31, 0xFE	; 254
    15c8:	60 90 0e 01 	lds	r6, 0x010E	; 0x80010e <colors+0xc>
    15cc:	70 90 0f 01 	lds	r7, 0x010F	; 0x80010f <colors+0xd>
    15d0:	80 90 10 01 	lds	r8, 0x0110	; 0x800110 <colors+0xe>
    15d4:	60 82       	st	Z, r6
    15d6:	71 82       	std	Z+1, r7	; 0x01
    15d8:	82 82       	std	Z+2, r8	; 0x02
		led[pgm_read_byte(&(matrix[row_title - 1][offset_par - i - 1 ]))] = led_off;
    15da:	2b e0       	ldi	r18, 0x0B	; 11
    15dc:	30 e0       	ldi	r19, 0x00	; 0
    15de:	28 1b       	sub	r18, r24
    15e0:	39 0b       	sbc	r19, r25
    15e2:	f9 01       	movw	r30, r18
    15e4:	e8 55       	subi	r30, 0x58	; 88
    15e6:	ff 4f       	sbci	r31, 0xFF	; 255
    15e8:	ee 0f       	add	r30, r30
    15ea:	ff 1f       	adc	r31, r31
    15ec:	e8 58       	subi	r30, 0x88	; 136
    15ee:	ff 4f       	sbci	r31, 0xFF	; 255
    15f0:	e4 91       	lpm	r30, Z
    15f2:	f0 e0       	ldi	r31, 0x00	; 0
    15f4:	bf 01       	movw	r22, r30
    15f6:	66 0f       	add	r22, r22
    15f8:	77 1f       	adc	r23, r23
    15fa:	e6 0f       	add	r30, r22
    15fc:	f7 1f       	adc	r31, r23
    15fe:	e7 54       	subi	r30, 0x47	; 71
    1600:	fe 4f       	sbci	r31, 0xFE	; 254
    1602:	c0 82       	st	Z, r12
    1604:	d1 82       	std	Z+1, r13	; 0x01
    1606:	e2 82       	std	Z+2, r14	; 0x02
		
		led[pgm_read_byte(&(matrix[row_title - 3][offset_par - i]))] = colors[4];			// PAR
    1608:	fa 01       	movw	r30, r20
    160a:	e0 57       	subi	r30, 0x70	; 112
    160c:	ff 4f       	sbci	r31, 0xFF	; 255
    160e:	ee 0f       	add	r30, r30
    1610:	ff 1f       	adc	r31, r31
    1612:	e8 58       	subi	r30, 0x88	; 136
    1614:	ff 4f       	sbci	r31, 0xFF	; 255
    1616:	e4 91       	lpm	r30, Z
    1618:	f0 e0       	ldi	r31, 0x00	; 0
    161a:	af 01       	movw	r20, r30
    161c:	44 0f       	add	r20, r20
    161e:	55 1f       	adc	r21, r21
    1620:	e4 0f       	add	r30, r20
    1622:	f5 1f       	adc	r31, r21
    1624:	e7 54       	subi	r30, 0x47	; 71
    1626:	fe 4f       	sbci	r31, 0xFE	; 254
    1628:	60 82       	st	Z, r6
    162a:	71 82       	std	Z+1, r7	; 0x01
    162c:	82 82       	std	Z+2, r8	; 0x02
		led[pgm_read_byte(&(matrix[row_title - 3][offset_par - i - 1]))] = led_off;
    162e:	f9 01       	movw	r30, r18
    1630:	e0 57       	subi	r30, 0x70	; 112
    1632:	ff 4f       	sbci	r31, 0xFF	; 255
    1634:	ee 0f       	add	r30, r30
    1636:	ff 1f       	adc	r31, r31
    1638:	e8 58       	subi	r30, 0x88	; 136
    163a:	ff 4f       	sbci	r31, 0xFF	; 255
    163c:	e4 91       	lpm	r30, Z
    163e:	f0 e0       	ldi	r31, 0x00	; 0
    1640:	9f 01       	movw	r18, r30
    1642:	22 0f       	add	r18, r18
    1644:	33 1f       	adc	r19, r19
    1646:	e2 0f       	add	r30, r18
    1648:	f3 1f       	adc	r31, r19
    164a:	e7 54       	subi	r30, 0x47	; 71
    164c:	fe 4f       	sbci	r31, 0xFE	; 254
    164e:	c0 82       	st	Z, r12
    1650:	d1 82       	std	Z+1, r13	; 0x01
    1652:	e2 82       	std	Z+2, r14	; 0x02
		// T
		
		offset_impar = -9;
		offset_par = (column - 1) - offset_impar;
		
		for (byte T = 0; T < 5; T++)
    1654:	20 e0       	ldi	r18, 0x00	; 0
    1656:	1d c0       	rjmp	.+58     	; 0x1692 <sliding_menu+0x3dc>
		{
			led[pgm_read_byte(&(matrix[row_title][offset_impar + i + T]))] = colors[7];		// IMPAR
    1658:	fc 01       	movw	r30, r24
    165a:	39 97       	sbiw	r30, 0x09	; 9
    165c:	e2 0f       	add	r30, r18
    165e:	f1 1d       	adc	r31, r1
    1660:	ec 54       	subi	r30, 0x4C	; 76
    1662:	ff 4f       	sbci	r31, 0xFF	; 255
    1664:	ee 0f       	add	r30, r30
    1666:	ff 1f       	adc	r31, r31
    1668:	e8 58       	subi	r30, 0x88	; 136
    166a:	ff 4f       	sbci	r31, 0xFF	; 255
    166c:	e4 91       	lpm	r30, Z
    166e:	f0 e0       	ldi	r31, 0x00	; 0
    1670:	af 01       	movw	r20, r30
    1672:	44 0f       	add	r20, r20
    1674:	55 1f       	adc	r21, r21
    1676:	e4 0f       	add	r30, r20
    1678:	f5 1f       	adc	r31, r21
    167a:	e7 54       	subi	r30, 0x47	; 71
    167c:	fe 4f       	sbci	r31, 0xFE	; 254
    167e:	c0 90 17 01 	lds	r12, 0x0117	; 0x800117 <colors+0x15>
    1682:	d0 90 18 01 	lds	r13, 0x0118	; 0x800118 <colors+0x16>
    1686:	e0 90 19 01 	lds	r14, 0x0119	; 0x800119 <colors+0x17>
    168a:	c0 82       	st	Z, r12
    168c:	d1 82       	std	Z+1, r13	; 0x01
    168e:	e2 82       	std	Z+2, r14	; 0x02
		// T
		
		offset_impar = -9;
		offset_par = (column - 1) - offset_impar;
		
		for (byte T = 0; T < 5; T++)
    1690:	2f 5f       	subi	r18, 0xFF	; 255
    1692:	25 30       	cpi	r18, 0x05	; 5
    1694:	08 f3       	brcs	.-62     	; 0x1658 <sliding_menu+0x3a2>
		{
			led[pgm_read_byte(&(matrix[row_title][offset_impar + i + T]))] = colors[7];		// IMPAR
		}
		led[pgm_read_byte(&(matrix[row_title][offset_impar + i - 1]))] = led_off;
    1696:	fc 01       	movw	r30, r24
    1698:	e6 55       	subi	r30, 0x56	; 86
    169a:	ff 4f       	sbci	r31, 0xFF	; 255
    169c:	ee 0f       	add	r30, r30
    169e:	ff 1f       	adc	r31, r31
    16a0:	e8 58       	subi	r30, 0x88	; 136
    16a2:	ff 4f       	sbci	r31, 0xFF	; 255
    16a4:	e4 91       	lpm	r30, Z
    16a6:	f0 e0       	ldi	r31, 0x00	; 0
    16a8:	9f 01       	movw	r18, r30
    16aa:	22 0f       	add	r18, r18
    16ac:	33 1f       	adc	r19, r19
    16ae:	e2 0f       	add	r30, r18
    16b0:	f3 1f       	adc	r31, r19
    16b2:	e7 54       	subi	r30, 0x47	; 71
    16b4:	fe 4f       	sbci	r31, 0xFE	; 254
    16b6:	c0 90 a5 01 	lds	r12, 0x01A5	; 0x8001a5 <led_off>
    16ba:	d0 90 a6 01 	lds	r13, 0x01A6	; 0x8001a6 <led_off+0x1>
    16be:	e0 90 a7 01 	lds	r14, 0x01A7	; 0x8001a7 <led_off+0x2>
    16c2:	c0 82       	st	Z, r12
    16c4:	d1 82       	std	Z+1, r13	; 0x01
    16c6:	e2 82       	std	Z+2, r14	; 0x02
		
		offset_impar += 2; // -7
		offset_par = (column - 1) - offset_impar;
		
		led[pgm_read_byte(&(matrix[row_title - 1][offset_par - i]))] = colors[5];			// PAR
    16c8:	42 e1       	ldi	r20, 0x12	; 18
    16ca:	50 e0       	ldi	r21, 0x00	; 0
    16cc:	48 1b       	sub	r20, r24
    16ce:	59 0b       	sbc	r21, r25
    16d0:	fa 01       	movw	r30, r20
    16d2:	e8 55       	subi	r30, 0x58	; 88
    16d4:	ff 4f       	sbci	r31, 0xFF	; 255
    16d6:	ee 0f       	add	r30, r30
    16d8:	ff 1f       	adc	r31, r31
    16da:	e8 58       	subi	r30, 0x88	; 136
    16dc:	ff 4f       	sbci	r31, 0xFF	; 255
    16de:	e4 91       	lpm	r30, Z
    16e0:	f0 e0       	ldi	r31, 0x00	; 0
    16e2:	9f 01       	movw	r18, r30
    16e4:	22 0f       	add	r18, r18
    16e6:	33 1f       	adc	r19, r19
    16e8:	e2 0f       	add	r30, r18
    16ea:	f3 1f       	adc	r31, r19
    16ec:	e7 54       	subi	r30, 0x47	; 71
    16ee:	fe 4f       	sbci	r31, 0xFE	; 254
    16f0:	a2 e0       	ldi	r26, 0x02	; 2
    16f2:	b1 e0       	ldi	r27, 0x01	; 1
    16f4:	1f 96       	adiw	r26, 0x0f	; 15
    16f6:	6d 90       	ld	r6, X+
    16f8:	7d 90       	ld	r7, X+
    16fa:	8c 90       	ld	r8, X
    16fc:	51 97       	sbiw	r26, 0x11	; 17
    16fe:	60 82       	st	Z, r6
    1700:	71 82       	std	Z+1, r7	; 0x01
    1702:	82 82       	std	Z+2, r8	; 0x02
		led[pgm_read_byte(&(matrix[row_title - 1][offset_par - i + 1]))] = led_off;
    1704:	23 e1       	ldi	r18, 0x13	; 19
    1706:	30 e0       	ldi	r19, 0x00	; 0
    1708:	28 1b       	sub	r18, r24
    170a:	39 0b       	sbc	r19, r25
    170c:	f9 01       	movw	r30, r18
    170e:	e8 55       	subi	r30, 0x58	; 88
    1710:	ff 4f       	sbci	r31, 0xFF	; 255
    1712:	ee 0f       	add	r30, r30
    1714:	ff 1f       	adc	r31, r31
    1716:	e8 58       	subi	r30, 0x88	; 136
    1718:	ff 4f       	sbci	r31, 0xFF	; 255
    171a:	e4 91       	lpm	r30, Z
    171c:	f0 e0       	ldi	r31, 0x00	; 0
    171e:	bf 01       	movw	r22, r30
    1720:	66 0f       	add	r22, r22
    1722:	77 1f       	adc	r23, r23
    1724:	e6 0f       	add	r30, r22
    1726:	f7 1f       	adc	r31, r23
    1728:	e7 54       	subi	r30, 0x47	; 71
    172a:	fe 4f       	sbci	r31, 0xFE	; 254
    172c:	c0 82       	st	Z, r12
    172e:	d1 82       	std	Z+1, r13	; 0x01
    1730:	e2 82       	std	Z+2, r14	; 0x02
		
		led[pgm_read_byte(&(matrix[row_title - 2][offset_impar + i]))] = colors[7];			// IMPAR
    1732:	fc 01       	movw	r30, r24
    1734:	eb 56       	subi	r30, 0x6B	; 107
    1736:	ff 4f       	sbci	r31, 0xFF	; 255
    1738:	ee 0f       	add	r30, r30
    173a:	ff 1f       	adc	r31, r31
    173c:	e8 58       	subi	r30, 0x88	; 136
    173e:	ff 4f       	sbci	r31, 0xFF	; 255
    1740:	e4 91       	lpm	r30, Z
    1742:	f0 e0       	ldi	r31, 0x00	; 0
    1744:	bf 01       	movw	r22, r30
    1746:	66 0f       	add	r22, r22
    1748:	77 1f       	adc	r23, r23
    174a:	e6 0f       	add	r30, r22
    174c:	f7 1f       	adc	r31, r23
    174e:	e7 54       	subi	r30, 0x47	; 71
    1750:	fe 4f       	sbci	r31, 0xFE	; 254
    1752:	55 96       	adiw	r26, 0x15	; 21
    1754:	2d 90       	ld	r2, X+
    1756:	3d 90       	ld	r3, X+
    1758:	4c 90       	ld	r4, X
    175a:	20 82       	st	Z, r2
    175c:	31 82       	std	Z+1, r3	; 0x01
    175e:	42 82       	std	Z+2, r4	; 0x02
		led[pgm_read_byte(&(matrix[row_title - 2][offset_impar + i - 1]))] = led_off;
    1760:	fc 01       	movw	r30, r24
    1762:	ec 56       	subi	r30, 0x6C	; 108
    1764:	ff 4f       	sbci	r31, 0xFF	; 255
    1766:	ee 0f       	add	r30, r30
    1768:	ff 1f       	adc	r31, r31
    176a:	e8 58       	subi	r30, 0x88	; 136
    176c:	ff 4f       	sbci	r31, 0xFF	; 255
    176e:	e4 91       	lpm	r30, Z
    1770:	f0 e0       	ldi	r31, 0x00	; 0
    1772:	bf 01       	movw	r22, r30
    1774:	66 0f       	add	r22, r22
    1776:	77 1f       	adc	r23, r23
    1778:	e6 0f       	add	r30, r22
    177a:	f7 1f       	adc	r31, r23
    177c:	e7 54       	subi	r30, 0x47	; 71
    177e:	fe 4f       	sbci	r31, 0xFE	; 254
    1780:	c0 82       	st	Z, r12
    1782:	d1 82       	std	Z+1, r13	; 0x01
    1784:	e2 82       	std	Z+2, r14	; 0x02
		
		led[pgm_read_byte(&(matrix[row_title - 3][offset_par - i]))] = colors[5];			// PAR
    1786:	fa 01       	movw	r30, r20
    1788:	e0 57       	subi	r30, 0x70	; 112
    178a:	ff 4f       	sbci	r31, 0xFF	; 255
    178c:	ee 0f       	add	r30, r30
    178e:	ff 1f       	adc	r31, r31
    1790:	e8 58       	subi	r30, 0x88	; 136
    1792:	ff 4f       	sbci	r31, 0xFF	; 255
    1794:	e4 91       	lpm	r30, Z
    1796:	f0 e0       	ldi	r31, 0x00	; 0
    1798:	af 01       	movw	r20, r30
    179a:	44 0f       	add	r20, r20
    179c:	55 1f       	adc	r21, r21
    179e:	e4 0f       	add	r30, r20
    17a0:	f5 1f       	adc	r31, r21
    17a2:	e7 54       	subi	r30, 0x47	; 71
    17a4:	fe 4f       	sbci	r31, 0xFE	; 254
    17a6:	60 82       	st	Z, r6
    17a8:	71 82       	std	Z+1, r7	; 0x01
    17aa:	82 82       	std	Z+2, r8	; 0x02
		led[pgm_read_byte(&(matrix[row_title - 3][offset_par - i + 1]))] = led_off;
    17ac:	f9 01       	movw	r30, r18
    17ae:	e0 57       	subi	r30, 0x70	; 112
    17b0:	ff 4f       	sbci	r31, 0xFF	; 255
    17b2:	ee 0f       	add	r30, r30
    17b4:	ff 1f       	adc	r31, r31
    17b6:	e8 58       	subi	r30, 0x88	; 136
    17b8:	ff 4f       	sbci	r31, 0xFF	; 255
    17ba:	e4 91       	lpm	r30, Z
    17bc:	f0 e0       	ldi	r31, 0x00	; 0
    17be:	9f 01       	movw	r18, r30
    17c0:	22 0f       	add	r18, r18
    17c2:	33 1f       	adc	r19, r19
    17c4:	e2 0f       	add	r30, r18
    17c6:	f3 1f       	adc	r31, r19
    17c8:	e7 54       	subi	r30, 0x47	; 71
    17ca:	fe 4f       	sbci	r31, 0xFE	; 254
    17cc:	c0 82       	st	Z, r12
    17ce:	d1 82       	std	Z+1, r13	; 0x01
    17d0:	e2 82       	std	Z+2, r14	; 0x02
		
		led[pgm_read_byte(&(matrix[row_title - 4][offset_impar + i]))] = colors[7];			// IMPAR
    17d2:	fc 01       	movw	r30, r24
    17d4:	e3 58       	subi	r30, 0x83	; 131
    17d6:	ff 4f       	sbci	r31, 0xFF	; 255
    17d8:	ee 0f       	add	r30, r30
    17da:	ff 1f       	adc	r31, r31
    17dc:	e8 58       	subi	r30, 0x88	; 136
    17de:	ff 4f       	sbci	r31, 0xFF	; 255
    17e0:	e4 91       	lpm	r30, Z
    17e2:	f0 e0       	ldi	r31, 0x00	; 0
    17e4:	9f 01       	movw	r18, r30
    17e6:	22 0f       	add	r18, r18
    17e8:	33 1f       	adc	r19, r19
    17ea:	e2 0f       	add	r30, r18
    17ec:	f3 1f       	adc	r31, r19
    17ee:	e7 54       	subi	r30, 0x47	; 71
    17f0:	fe 4f       	sbci	r31, 0xFE	; 254
    17f2:	20 82       	st	Z, r2
    17f4:	31 82       	std	Z+1, r3	; 0x01
    17f6:	42 82       	std	Z+2, r4	; 0x02
		led[pgm_read_byte(&(matrix[row_title - 4][offset_impar + i - 1]))] = led_off;
    17f8:	fc 01       	movw	r30, r24
    17fa:	e4 58       	subi	r30, 0x84	; 132
    17fc:	ff 4f       	sbci	r31, 0xFF	; 255
    17fe:	ee 0f       	add	r30, r30
    1800:	ff 1f       	adc	r31, r31
    1802:	e8 58       	subi	r30, 0x88	; 136
    1804:	ff 4f       	sbci	r31, 0xFF	; 255
    1806:	e4 91       	lpm	r30, Z
    1808:	f0 e0       	ldi	r31, 0x00	; 0
    180a:	9f 01       	movw	r18, r30
    180c:	22 0f       	add	r18, r18
    180e:	33 1f       	adc	r19, r19
    1810:	e2 0f       	add	r30, r18
    1812:	f3 1f       	adc	r31, r19
    1814:	e7 54       	subi	r30, 0x47	; 71
    1816:	fe 4f       	sbci	r31, 0xFE	; 254
    1818:	c0 82       	st	Z, r12
    181a:	d1 82       	std	Z+1, r13	; 0x01
    181c:	e2 82       	std	Z+2, r14	; 0x02
		// R
		
		offset_impar = -13; //ltimo na parte de cima de R
		offset_par = (column - 1) - offset_impar ; //24
		
		for (byte r = 0; r < 3; r++)
    181e:	60 e0       	ldi	r22, 0x00	; 0
    1820:	35 c0       	rjmp	.+106    	; 0x188c <sliding_menu+0x5d6>
		{
			led[pgm_read_byte(&(matrix[row_title][offset_impar + i + r]))] = colors[3];		// IMPAR	
    1822:	ac 01       	movw	r20, r24
    1824:	4d 50       	subi	r20, 0x0D	; 13
    1826:	51 09       	sbc	r21, r1
    1828:	46 0f       	add	r20, r22
    182a:	51 1d       	adc	r21, r1
    182c:	fa 01       	movw	r30, r20
    182e:	ec 54       	subi	r30, 0x4C	; 76
    1830:	ff 4f       	sbci	r31, 0xFF	; 255
    1832:	ee 0f       	add	r30, r30
    1834:	ff 1f       	adc	r31, r31
    1836:	e8 58       	subi	r30, 0x88	; 136
    1838:	ff 4f       	sbci	r31, 0xFF	; 255
    183a:	24 91       	lpm	r18, Z
    183c:	30 e0       	ldi	r19, 0x00	; 0
    183e:	f9 01       	movw	r30, r18
    1840:	ee 0f       	add	r30, r30
    1842:	ff 1f       	adc	r31, r31
    1844:	2e 0f       	add	r18, r30
    1846:	3f 1f       	adc	r19, r31
    1848:	f9 01       	movw	r30, r18
    184a:	e7 54       	subi	r30, 0x47	; 71
    184c:	fe 4f       	sbci	r31, 0xFE	; 254
    184e:	c0 90 0b 01 	lds	r12, 0x010B	; 0x80010b <colors+0x9>
    1852:	d0 90 0c 01 	lds	r13, 0x010C	; 0x80010c <colors+0xa>
    1856:	e0 90 0d 01 	lds	r14, 0x010D	; 0x80010d <colors+0xb>
    185a:	c0 82       	st	Z, r12
    185c:	d1 82       	std	Z+1, r13	; 0x01
    185e:	e2 82       	std	Z+2, r14	; 0x02
		
			if (r < 2)
    1860:	62 30       	cpi	r22, 0x02	; 2
    1862:	98 f4       	brcc	.+38     	; 0x188a <sliding_menu+0x5d4>
			{
				led[pgm_read_byte(&(matrix[row_title - 2][offset_impar + i + r]))] = colors[3];// IMPAR	
    1864:	fa 01       	movw	r30, r20
    1866:	e4 56       	subi	r30, 0x64	; 100
    1868:	ff 4f       	sbci	r31, 0xFF	; 255
    186a:	ee 0f       	add	r30, r30
    186c:	ff 1f       	adc	r31, r31
    186e:	e8 58       	subi	r30, 0x88	; 136
    1870:	ff 4f       	sbci	r31, 0xFF	; 255
    1872:	e4 91       	lpm	r30, Z
    1874:	f0 e0       	ldi	r31, 0x00	; 0
    1876:	9f 01       	movw	r18, r30
    1878:	22 0f       	add	r18, r18
    187a:	33 1f       	adc	r19, r19
    187c:	e2 0f       	add	r30, r18
    187e:	f3 1f       	adc	r31, r19
    1880:	e7 54       	subi	r30, 0x47	; 71
    1882:	fe 4f       	sbci	r31, 0xFE	; 254
    1884:	c0 82       	st	Z, r12
    1886:	d1 82       	std	Z+1, r13	; 0x01
    1888:	e2 82       	std	Z+2, r14	; 0x02
		// R
		
		offset_impar = -13; //ltimo na parte de cima de R
		offset_par = (column - 1) - offset_impar ; //24
		
		for (byte r = 0; r < 3; r++)
    188a:	6f 5f       	subi	r22, 0xFF	; 255
    188c:	63 30       	cpi	r22, 0x03	; 3
    188e:	48 f2       	brcs	.-110    	; 0x1822 <sliding_menu+0x56c>
			if (r < 2)
			{
				led[pgm_read_byte(&(matrix[row_title - 2][offset_impar + i + r]))] = colors[3];// IMPAR	
			}
		}
		led[pgm_read_byte(&(matrix[row_title][offset_impar + i - 1]))] = led_off;
    1890:	fc 01       	movw	r30, r24
    1892:	ea 55       	subi	r30, 0x5A	; 90
    1894:	ff 4f       	sbci	r31, 0xFF	; 255
    1896:	ee 0f       	add	r30, r30
    1898:	ff 1f       	adc	r31, r31
    189a:	e8 58       	subi	r30, 0x88	; 136
    189c:	ff 4f       	sbci	r31, 0xFF	; 255
    189e:	e4 91       	lpm	r30, Z
    18a0:	f0 e0       	ldi	r31, 0x00	; 0
    18a2:	9f 01       	movw	r18, r30
    18a4:	22 0f       	add	r18, r18
    18a6:	33 1f       	adc	r19, r19
    18a8:	e2 0f       	add	r30, r18
    18aa:	f3 1f       	adc	r31, r19
    18ac:	e7 54       	subi	r30, 0x47	; 71
    18ae:	fe 4f       	sbci	r31, 0xFE	; 254
    18b0:	20 91 a5 01 	lds	r18, 0x01A5	; 0x8001a5 <led_off>
    18b4:	30 91 a6 01 	lds	r19, 0x01A6	; 0x8001a6 <led_off+0x1>
    18b8:	40 91 a7 01 	lds	r20, 0x01A7	; 0x8001a7 <led_off+0x2>
    18bc:	20 83       	st	Z, r18
    18be:	31 83       	std	Z+1, r19	; 0x01
    18c0:	42 83       	std	Z+2, r20	; 0x02
		led[pgm_read_byte(&(matrix[row_title - 2][offset_impar + i - 1]))] = led_off;
    18c2:	fc 01       	movw	r30, r24
    18c4:	e2 57       	subi	r30, 0x72	; 114
    18c6:	ff 4f       	sbci	r31, 0xFF	; 255
    18c8:	ee 0f       	add	r30, r30
    18ca:	ff 1f       	adc	r31, r31
    18cc:	e8 58       	subi	r30, 0x88	; 136
    18ce:	ff 4f       	sbci	r31, 0xFF	; 255
    18d0:	e4 91       	lpm	r30, Z
    18d2:	f0 e0       	ldi	r31, 0x00	; 0
    18d4:	bf 01       	movw	r22, r30
    18d6:	66 0f       	add	r22, r22
    18d8:	77 1f       	adc	r23, r23
    18da:	e6 0f       	add	r30, r22
    18dc:	f7 1f       	adc	r31, r23
    18de:	e7 54       	subi	r30, 0x47	; 71
    18e0:	fe 4f       	sbci	r31, 0xFE	; 254
    18e2:	20 83       	st	Z, r18
    18e4:	31 83       	std	Z+1, r19	; 0x01
    18e6:	42 83       	std	Z+2, r20	; 0x02
		
		led[pgm_read_byte(&(matrix[row_title - 1][offset_par - i]))] = colors[6];			// PAR
    18e8:	e8 e1       	ldi	r30, 0x18	; 24
    18ea:	f0 e0       	ldi	r31, 0x00	; 0
    18ec:	e8 1b       	sub	r30, r24
    18ee:	f9 0b       	sbc	r31, r25
    18f0:	e8 55       	subi	r30, 0x58	; 88
    18f2:	ff 4f       	sbci	r31, 0xFF	; 255
    18f4:	ee 0f       	add	r30, r30
    18f6:	ff 1f       	adc	r31, r31
    18f8:	e8 58       	subi	r30, 0x88	; 136
    18fa:	ff 4f       	sbci	r31, 0xFF	; 255
    18fc:	e4 91       	lpm	r30, Z
    18fe:	f0 e0       	ldi	r31, 0x00	; 0
    1900:	bf 01       	movw	r22, r30
    1902:	66 0f       	add	r22, r22
    1904:	77 1f       	adc	r23, r23
    1906:	e6 0f       	add	r30, r22
    1908:	f7 1f       	adc	r31, r23
    190a:	e7 54       	subi	r30, 0x47	; 71
    190c:	fe 4f       	sbci	r31, 0xFE	; 254
    190e:	a2 e0       	ldi	r26, 0x02	; 2
    1910:	b1 e0       	ldi	r27, 0x01	; 1
    1912:	52 96       	adiw	r26, 0x12	; 18
    1914:	cd 90       	ld	r12, X+
    1916:	dd 90       	ld	r13, X+
    1918:	ec 90       	ld	r14, X
    191a:	54 97       	sbiw	r26, 0x14	; 20
    191c:	c0 82       	st	Z, r12
    191e:	d1 82       	std	Z+1, r13	; 0x01
    1920:	e2 82       	std	Z+2, r14	; 0x02
		led[pgm_read_byte(&(matrix[row_title - 1][offset_par - i + 1]))] = led_off;
    1922:	e9 e1       	ldi	r30, 0x19	; 25
    1924:	f0 e0       	ldi	r31, 0x00	; 0
    1926:	e8 1b       	sub	r30, r24
    1928:	f9 0b       	sbc	r31, r25
    192a:	e8 55       	subi	r30, 0x58	; 88
    192c:	ff 4f       	sbci	r31, 0xFF	; 255
    192e:	ee 0f       	add	r30, r30
    1930:	ff 1f       	adc	r31, r31
    1932:	e8 58       	subi	r30, 0x88	; 136
    1934:	ff 4f       	sbci	r31, 0xFF	; 255
    1936:	e4 91       	lpm	r30, Z
    1938:	f0 e0       	ldi	r31, 0x00	; 0
    193a:	bf 01       	movw	r22, r30
    193c:	66 0f       	add	r22, r22
    193e:	77 1f       	adc	r23, r23
    1940:	e6 0f       	add	r30, r22
    1942:	f7 1f       	adc	r31, r23
    1944:	e7 54       	subi	r30, 0x47	; 71
    1946:	fe 4f       	sbci	r31, 0xFE	; 254
    1948:	20 83       	st	Z, r18
    194a:	31 83       	std	Z+1, r19	; 0x01
    194c:	42 83       	std	Z+2, r20	; 0x02
		
		led[pgm_read_byte(&(matrix[row_title - 1][offset_par - i - 2]))] = colors[6];		// PAR
    194e:	e6 e1       	ldi	r30, 0x16	; 22
    1950:	f0 e0       	ldi	r31, 0x00	; 0
    1952:	e8 1b       	sub	r30, r24
    1954:	f9 0b       	sbc	r31, r25
    1956:	e8 55       	subi	r30, 0x58	; 88
    1958:	ff 4f       	sbci	r31, 0xFF	; 255
    195a:	ee 0f       	add	r30, r30
    195c:	ff 1f       	adc	r31, r31
    195e:	e8 58       	subi	r30, 0x88	; 136
    1960:	ff 4f       	sbci	r31, 0xFF	; 255
    1962:	e4 91       	lpm	r30, Z
    1964:	f0 e0       	ldi	r31, 0x00	; 0
    1966:	bf 01       	movw	r22, r30
    1968:	66 0f       	add	r22, r22
    196a:	77 1f       	adc	r23, r23
    196c:	e6 0f       	add	r30, r22
    196e:	f7 1f       	adc	r31, r23
    1970:	e7 54       	subi	r30, 0x47	; 71
    1972:	fe 4f       	sbci	r31, 0xFE	; 254
    1974:	c0 82       	st	Z, r12
    1976:	d1 82       	std	Z+1, r13	; 0x01
    1978:	e2 82       	std	Z+2, r14	; 0x02
		led[pgm_read_byte(&(matrix[row_title - 1][offset_par - i - 2 + 1]))] = led_off;
    197a:	e7 e1       	ldi	r30, 0x17	; 23
    197c:	f0 e0       	ldi	r31, 0x00	; 0
    197e:	e8 1b       	sub	r30, r24
    1980:	f9 0b       	sbc	r31, r25
    1982:	e8 55       	subi	r30, 0x58	; 88
    1984:	ff 4f       	sbci	r31, 0xFF	; 255
    1986:	ee 0f       	add	r30, r30
    1988:	ff 1f       	adc	r31, r31
    198a:	e8 58       	subi	r30, 0x88	; 136
    198c:	ff 4f       	sbci	r31, 0xFF	; 255
    198e:	e4 91       	lpm	r30, Z
    1990:	f0 e0       	ldi	r31, 0x00	; 0
    1992:	bf 01       	movw	r22, r30
    1994:	66 0f       	add	r22, r22
    1996:	77 1f       	adc	r23, r23
    1998:	e6 0f       	add	r30, r22
    199a:	f7 1f       	adc	r31, r23
    199c:	e7 54       	subi	r30, 0x47	; 71
    199e:	fe 4f       	sbci	r31, 0xFE	; 254
    19a0:	20 83       	st	Z, r18
    19a2:	31 83       	std	Z+1, r19	; 0x01
    19a4:	42 83       	std	Z+2, r20	; 0x02
		
		led[pgm_read_byte(&(matrix[row_title - 4][offset_impar + i - 1]))] = colors[3];		// IMPAR
    19a6:	fc 01       	movw	r30, r24
    19a8:	ea 58       	subi	r30, 0x8A	; 138
    19aa:	ff 4f       	sbci	r31, 0xFF	; 255
    19ac:	ee 0f       	add	r30, r30
    19ae:	ff 1f       	adc	r31, r31
    19b0:	e8 58       	subi	r30, 0x88	; 136
    19b2:	ff 4f       	sbci	r31, 0xFF	; 255
    19b4:	e4 91       	lpm	r30, Z
    19b6:	f0 e0       	ldi	r31, 0x00	; 0
    19b8:	bf 01       	movw	r22, r30
    19ba:	66 0f       	add	r22, r22
    19bc:	77 1f       	adc	r23, r23
    19be:	e6 0f       	add	r30, r22
    19c0:	f7 1f       	adc	r31, r23
    19c2:	e7 54       	subi	r30, 0x47	; 71
    19c4:	fe 4f       	sbci	r31, 0xFE	; 254
    19c6:	19 96       	adiw	r26, 0x09	; 9
    19c8:	cd 90       	ld	r12, X+
    19ca:	dd 90       	ld	r13, X+
    19cc:	ec 90       	ld	r14, X
    19ce:	c0 82       	st	Z, r12
    19d0:	d1 82       	std	Z+1, r13	; 0x01
    19d2:	e2 82       	std	Z+2, r14	; 0x02
		led[pgm_read_byte(&(matrix[row_title - 4][offset_impar + i - 1 - 1]))] = led_off;
    19d4:	fc 01       	movw	r30, r24
    19d6:	eb 58       	subi	r30, 0x8B	; 139
    19d8:	ff 4f       	sbci	r31, 0xFF	; 255
    19da:	ee 0f       	add	r30, r30
    19dc:	ff 1f       	adc	r31, r31
    19de:	e8 58       	subi	r30, 0x88	; 136
    19e0:	ff 4f       	sbci	r31, 0xFF	; 255
    19e2:	e4 91       	lpm	r30, Z
    19e4:	f0 e0       	ldi	r31, 0x00	; 0
    19e6:	bf 01       	movw	r22, r30
    19e8:	66 0f       	add	r22, r22
    19ea:	77 1f       	adc	r23, r23
    19ec:	e6 0f       	add	r30, r22
    19ee:	f7 1f       	adc	r31, r23
    19f0:	e7 54       	subi	r30, 0x47	; 71
    19f2:	fe 4f       	sbci	r31, 0xFE	; 254
    19f4:	20 83       	st	Z, r18
    19f6:	31 83       	std	Z+1, r19	; 0x01
    19f8:	42 83       	std	Z+2, r20	; 0x02
		
		led[pgm_read_byte(&(matrix[row_title - 4][offset_impar + i + 2]))] = colors[3];		// IMPAR
    19fa:	fc 01       	movw	r30, r24
    19fc:	e7 58       	subi	r30, 0x87	; 135
    19fe:	ff 4f       	sbci	r31, 0xFF	; 255
    1a00:	ee 0f       	add	r30, r30
    1a02:	ff 1f       	adc	r31, r31
    1a04:	e8 58       	subi	r30, 0x88	; 136
    1a06:	ff 4f       	sbci	r31, 0xFF	; 255
    1a08:	e4 91       	lpm	r30, Z
    1a0a:	f0 e0       	ldi	r31, 0x00	; 0
    1a0c:	bf 01       	movw	r22, r30
    1a0e:	66 0f       	add	r22, r22
    1a10:	77 1f       	adc	r23, r23
    1a12:	e6 0f       	add	r30, r22
    1a14:	f7 1f       	adc	r31, r23
    1a16:	e7 54       	subi	r30, 0x47	; 71
    1a18:	fe 4f       	sbci	r31, 0xFE	; 254
    1a1a:	c0 82       	st	Z, r12
    1a1c:	d1 82       	std	Z+1, r13	; 0x01
    1a1e:	e2 82       	std	Z+2, r14	; 0x02
		led[pgm_read_byte(&(matrix[row_title - 4][offset_impar + i + 2 - 1]))] = led_off;
    1a20:	fc 01       	movw	r30, r24
    1a22:	e8 58       	subi	r30, 0x88	; 136
    1a24:	ff 4f       	sbci	r31, 0xFF	; 255
    1a26:	ee 0f       	add	r30, r30
    1a28:	ff 1f       	adc	r31, r31
    1a2a:	e8 58       	subi	r30, 0x88	; 136
    1a2c:	ff 4f       	sbci	r31, 0xFF	; 255
    1a2e:	e4 91       	lpm	r30, Z
    1a30:	f0 e0       	ldi	r31, 0x00	; 0
    1a32:	bf 01       	movw	r22, r30
    1a34:	66 0f       	add	r22, r22
    1a36:	77 1f       	adc	r23, r23
    1a38:	e6 0f       	add	r30, r22
    1a3a:	f7 1f       	adc	r31, r23
    1a3c:	e7 54       	subi	r30, 0x47	; 71
    1a3e:	fe 4f       	sbci	r31, 0xFE	; 254
    1a40:	20 83       	st	Z, r18
    1a42:	31 83       	std	Z+1, r19	; 0x01
    1a44:	42 83       	std	Z+2, r20	; 0x02
		// I
		
		offset_impar = -16;
		offset_par = (column - 1) - offset_impar ; //27
		
		for ( byte I = 0; I < 5; I++)
    1a46:	40 e0       	ldi	r20, 0x00	; 0
    1a48:	a0 c0       	rjmp	.+320    	; 0x1b8a <sliding_menu+0x8d4>
		{
			if (I%2)
    1a4a:	40 ff       	sbrs	r20, 0
    1a4c:	50 c0       	rjmp	.+160    	; 0x1aee <sliding_menu+0x838>
			{
				led[pgm_read_byte(&(matrix[row_title - I][offset_par - i]))] = colors[0];	// PAR
    1a4e:	6f e0       	ldi	r22, 0x0F	; 15
    1a50:	70 e0       	ldi	r23, 0x00	; 0
    1a52:	64 1b       	sub	r22, r20
    1a54:	71 09       	sbc	r23, r1
    1a56:	eb e1       	ldi	r30, 0x1B	; 27
    1a58:	f0 e0       	ldi	r31, 0x00	; 0
    1a5a:	df 01       	movw	r26, r30
    1a5c:	a8 1b       	sub	r26, r24
    1a5e:	b9 0b       	sbc	r27, r25
    1a60:	8b 01       	movw	r16, r22
    1a62:	00 0f       	add	r16, r16
    1a64:	11 1f       	adc	r17, r17
    1a66:	f8 01       	movw	r30, r16
    1a68:	e6 0f       	add	r30, r22
    1a6a:	f7 1f       	adc	r31, r23
    1a6c:	ee 0f       	add	r30, r30
    1a6e:	ff 1f       	adc	r31, r31
    1a70:	ee 0f       	add	r30, r30
    1a72:	ff 1f       	adc	r31, r31
    1a74:	ea 0f       	add	r30, r26
    1a76:	fb 1f       	adc	r31, r27
    1a78:	ee 0f       	add	r30, r30
    1a7a:	ff 1f       	adc	r31, r31
    1a7c:	e8 58       	subi	r30, 0x88	; 136
    1a7e:	ff 4f       	sbci	r31, 0xFF	; 255
    1a80:	e4 91       	lpm	r30, Z
    1a82:	2e 2f       	mov	r18, r30
    1a84:	30 e0       	ldi	r19, 0x00	; 0
    1a86:	d9 01       	movw	r26, r18
    1a88:	aa 0f       	add	r26, r26
    1a8a:	bb 1f       	adc	r27, r27
    1a8c:	2a 0f       	add	r18, r26
    1a8e:	3b 1f       	adc	r19, r27
    1a90:	d9 01       	movw	r26, r18
    1a92:	a7 54       	subi	r26, 0x47	; 71
    1a94:	be 4f       	sbci	r27, 0xFE	; 254
    1a96:	c0 90 02 01 	lds	r12, 0x0102	; 0x800102 <colors>
    1a9a:	d0 90 03 01 	lds	r13, 0x0103	; 0x800103 <colors+0x1>
    1a9e:	e0 90 04 01 	lds	r14, 0x0104	; 0x800104 <colors+0x2>
    1aa2:	cd 92       	st	X+, r12
    1aa4:	dd 92       	st	X+, r13
    1aa6:	ec 92       	st	X, r14
				led[pgm_read_byte(&(matrix[row_title - I][offset_par + i + 1]))] = led_off;
    1aa8:	f8 01       	movw	r30, r16
    1aaa:	e6 0f       	add	r30, r22
    1aac:	f7 1f       	adc	r31, r23
    1aae:	ee 0f       	add	r30, r30
    1ab0:	ff 1f       	adc	r31, r31
    1ab2:	ee 0f       	add	r30, r30
    1ab4:	ff 1f       	adc	r31, r31
    1ab6:	9c 01       	movw	r18, r24
    1ab8:	24 5e       	subi	r18, 0xE4	; 228
    1aba:	3f 4f       	sbci	r19, 0xFF	; 255
    1abc:	e2 0f       	add	r30, r18
    1abe:	f3 1f       	adc	r31, r19
    1ac0:	ee 0f       	add	r30, r30
    1ac2:	ff 1f       	adc	r31, r31
    1ac4:	e8 58       	subi	r30, 0x88	; 136
    1ac6:	ff 4f       	sbci	r31, 0xFF	; 255
    1ac8:	e4 91       	lpm	r30, Z
    1aca:	f0 e0       	ldi	r31, 0x00	; 0
    1acc:	9f 01       	movw	r18, r30
    1ace:	22 0f       	add	r18, r18
    1ad0:	33 1f       	adc	r19, r19
    1ad2:	e2 0f       	add	r30, r18
    1ad4:	f3 1f       	adc	r31, r19
    1ad6:	e7 54       	subi	r30, 0x47	; 71
    1ad8:	fe 4f       	sbci	r31, 0xFE	; 254
    1ada:	c0 90 a5 01 	lds	r12, 0x01A5	; 0x8001a5 <led_off>
    1ade:	d0 90 a6 01 	lds	r13, 0x01A6	; 0x8001a6 <led_off+0x1>
    1ae2:	e0 90 a7 01 	lds	r14, 0x01A7	; 0x8001a7 <led_off+0x2>
    1ae6:	c0 82       	st	Z, r12
    1ae8:	d1 82       	std	Z+1, r13	; 0x01
    1aea:	e2 82       	std	Z+2, r14	; 0x02
    1aec:	4d c0       	rjmp	.+154    	; 0x1b88 <sliding_menu+0x8d2>
			}
			else 
			{
				led[pgm_read_byte(&(matrix[row_title - I][offset_impar + i]))] = colors[0];	// IMPAR
    1aee:	6f e0       	ldi	r22, 0x0F	; 15
    1af0:	70 e0       	ldi	r23, 0x00	; 0
    1af2:	64 1b       	sub	r22, r20
    1af4:	71 09       	sbc	r23, r1
    1af6:	8b 01       	movw	r16, r22
    1af8:	00 0f       	add	r16, r16
    1afa:	11 1f       	adc	r17, r17
    1afc:	f8 01       	movw	r30, r16
    1afe:	e6 0f       	add	r30, r22
    1b00:	f7 1f       	adc	r31, r23
    1b02:	ee 0f       	add	r30, r30
    1b04:	ff 1f       	adc	r31, r31
    1b06:	ee 0f       	add	r30, r30
    1b08:	ff 1f       	adc	r31, r31
    1b0a:	9c 01       	movw	r18, r24
    1b0c:	20 51       	subi	r18, 0x10	; 16
    1b0e:	31 09       	sbc	r19, r1
    1b10:	e2 0f       	add	r30, r18
    1b12:	f3 1f       	adc	r31, r19
    1b14:	ee 0f       	add	r30, r30
    1b16:	ff 1f       	adc	r31, r31
    1b18:	e8 58       	subi	r30, 0x88	; 136
    1b1a:	ff 4f       	sbci	r31, 0xFF	; 255
    1b1c:	e4 91       	lpm	r30, Z
    1b1e:	2e 2f       	mov	r18, r30
    1b20:	30 e0       	ldi	r19, 0x00	; 0
    1b22:	d9 01       	movw	r26, r18
    1b24:	aa 0f       	add	r26, r26
    1b26:	bb 1f       	adc	r27, r27
    1b28:	2a 0f       	add	r18, r26
    1b2a:	3b 1f       	adc	r19, r27
    1b2c:	d9 01       	movw	r26, r18
    1b2e:	a7 54       	subi	r26, 0x47	; 71
    1b30:	be 4f       	sbci	r27, 0xFE	; 254
    1b32:	c0 90 02 01 	lds	r12, 0x0102	; 0x800102 <colors>
    1b36:	d0 90 03 01 	lds	r13, 0x0103	; 0x800103 <colors+0x1>
    1b3a:	e0 90 04 01 	lds	r14, 0x0104	; 0x800104 <colors+0x2>
    1b3e:	cd 92       	st	X+, r12
    1b40:	dd 92       	st	X+, r13
    1b42:	ec 92       	st	X, r14
				led[pgm_read_byte(&(matrix[row_title - I][offset_impar + i - 1]))] = led_off;
    1b44:	f8 01       	movw	r30, r16
    1b46:	e6 0f       	add	r30, r22
    1b48:	f7 1f       	adc	r31, r23
    1b4a:	ee 0f       	add	r30, r30
    1b4c:	ff 1f       	adc	r31, r31
    1b4e:	ee 0f       	add	r30, r30
    1b50:	ff 1f       	adc	r31, r31
    1b52:	9c 01       	movw	r18, r24
    1b54:	21 51       	subi	r18, 0x11	; 17
    1b56:	31 09       	sbc	r19, r1
    1b58:	e2 0f       	add	r30, r18
    1b5a:	f3 1f       	adc	r31, r19
    1b5c:	ee 0f       	add	r30, r30
    1b5e:	ff 1f       	adc	r31, r31
    1b60:	e8 58       	subi	r30, 0x88	; 136
    1b62:	ff 4f       	sbci	r31, 0xFF	; 255
    1b64:	e4 91       	lpm	r30, Z
    1b66:	f0 e0       	ldi	r31, 0x00	; 0
    1b68:	9f 01       	movw	r18, r30
    1b6a:	22 0f       	add	r18, r18
    1b6c:	33 1f       	adc	r19, r19
    1b6e:	e2 0f       	add	r30, r18
    1b70:	f3 1f       	adc	r31, r19
    1b72:	e7 54       	subi	r30, 0x47	; 71
    1b74:	fe 4f       	sbci	r31, 0xFE	; 254
    1b76:	c0 90 a5 01 	lds	r12, 0x01A5	; 0x8001a5 <led_off>
    1b7a:	d0 90 a6 01 	lds	r13, 0x01A6	; 0x8001a6 <led_off+0x1>
    1b7e:	e0 90 a7 01 	lds	r14, 0x01A7	; 0x8001a7 <led_off+0x2>
    1b82:	c0 82       	st	Z, r12
    1b84:	d1 82       	std	Z+1, r13	; 0x01
    1b86:	e2 82       	std	Z+2, r14	; 0x02
		// I
		
		offset_impar = -16;
		offset_par = (column - 1) - offset_impar ; //27
		
		for ( byte I = 0; I < 5; I++)
    1b88:	4f 5f       	subi	r20, 0xFF	; 255
    1b8a:	45 30       	cpi	r20, 0x05	; 5
    1b8c:	08 f4       	brcc	.+2      	; 0x1b90 <sliding_menu+0x8da>
    1b8e:	5d cf       	rjmp	.-326    	; 0x1a4a <sliding_menu+0x794>
    1b90:	40 e0       	ldi	r20, 0x00	; 0
    1b92:	50 e0       	ldi	r21, 0x00	; 0
    1b94:	46 c0       	rjmp	.+140    	; 0x1c22 <sliding_menu+0x96c>
		offset_impar = -20;
		offset_par = (column - 1) - offset_impar ; //31
		
		for (int s = 0; s < 3; s++)
		{
			led[pgm_read_byte(&(matrix[row_title][offset_impar + i + s]))] = colors[8];		// IMPAR
    1b96:	9c 01       	movw	r18, r24
    1b98:	24 51       	subi	r18, 0x14	; 20
    1b9a:	31 09       	sbc	r19, r1
    1b9c:	24 0f       	add	r18, r20
    1b9e:	35 1f       	adc	r19, r21
    1ba0:	f9 01       	movw	r30, r18
    1ba2:	ec 54       	subi	r30, 0x4C	; 76
    1ba4:	ff 4f       	sbci	r31, 0xFF	; 255
    1ba6:	ee 0f       	add	r30, r30
    1ba8:	ff 1f       	adc	r31, r31
    1baa:	e8 58       	subi	r30, 0x88	; 136
    1bac:	ff 4f       	sbci	r31, 0xFF	; 255
    1bae:	e4 91       	lpm	r30, Z
    1bb0:	f0 e0       	ldi	r31, 0x00	; 0
    1bb2:	bf 01       	movw	r22, r30
    1bb4:	66 0f       	add	r22, r22
    1bb6:	77 1f       	adc	r23, r23
    1bb8:	e6 0f       	add	r30, r22
    1bba:	f7 1f       	adc	r31, r23
    1bbc:	e7 54       	subi	r30, 0x47	; 71
    1bbe:	fe 4f       	sbci	r31, 0xFE	; 254
    1bc0:	c0 90 1a 01 	lds	r12, 0x011A	; 0x80011a <colors+0x18>
    1bc4:	d0 90 1b 01 	lds	r13, 0x011B	; 0x80011b <colors+0x19>
    1bc8:	e0 90 1c 01 	lds	r14, 0x011C	; 0x80011c <colors+0x1a>
    1bcc:	c0 82       	st	Z, r12
    1bce:	d1 82       	std	Z+1, r13	; 0x01
    1bd0:	e2 82       	std	Z+2, r14	; 0x02
			
			led[pgm_read_byte(&(matrix[row_title - 2][offset_impar + i + s]))] = colors[8];	// IMPAR
    1bd2:	f9 01       	movw	r30, r18
    1bd4:	e4 56       	subi	r30, 0x64	; 100
    1bd6:	ff 4f       	sbci	r31, 0xFF	; 255
    1bd8:	ee 0f       	add	r30, r30
    1bda:	ff 1f       	adc	r31, r31
    1bdc:	e8 58       	subi	r30, 0x88	; 136
    1bde:	ff 4f       	sbci	r31, 0xFF	; 255
    1be0:	e4 91       	lpm	r30, Z
    1be2:	f0 e0       	ldi	r31, 0x00	; 0
    1be4:	bf 01       	movw	r22, r30
    1be6:	66 0f       	add	r22, r22
    1be8:	77 1f       	adc	r23, r23
    1bea:	e6 0f       	add	r30, r22
    1bec:	f7 1f       	adc	r31, r23
    1bee:	e7 54       	subi	r30, 0x47	; 71
    1bf0:	fe 4f       	sbci	r31, 0xFE	; 254
    1bf2:	c0 82       	st	Z, r12
    1bf4:	d1 82       	std	Z+1, r13	; 0x01
    1bf6:	e2 82       	std	Z+2, r14	; 0x02
			
			led[pgm_read_byte(&matrix[row_title - 4][offset_impar + i + s])] = colors[8];	// IMPAR
    1bf8:	f9 01       	movw	r30, r18
    1bfa:	ec 57       	subi	r30, 0x7C	; 124
    1bfc:	ff 4f       	sbci	r31, 0xFF	; 255
    1bfe:	ee 0f       	add	r30, r30
    1c00:	ff 1f       	adc	r31, r31
    1c02:	e8 58       	subi	r30, 0x88	; 136
    1c04:	ff 4f       	sbci	r31, 0xFF	; 255
    1c06:	e4 91       	lpm	r30, Z
    1c08:	f0 e0       	ldi	r31, 0x00	; 0
    1c0a:	9f 01       	movw	r18, r30
    1c0c:	22 0f       	add	r18, r18
    1c0e:	33 1f       	adc	r19, r19
    1c10:	e2 0f       	add	r30, r18
    1c12:	f3 1f       	adc	r31, r19
    1c14:	e7 54       	subi	r30, 0x47	; 71
    1c16:	fe 4f       	sbci	r31, 0xFE	; 254
    1c18:	c0 82       	st	Z, r12
    1c1a:	d1 82       	std	Z+1, r13	; 0x01
    1c1c:	e2 82       	std	Z+2, r14	; 0x02
		// S
		
		offset_impar = -20;
		offset_par = (column - 1) - offset_impar ; //31
		
		for (int s = 0; s < 3; s++)
    1c1e:	4f 5f       	subi	r20, 0xFF	; 255
    1c20:	5f 4f       	sbci	r21, 0xFF	; 255
    1c22:	43 30       	cpi	r20, 0x03	; 3
    1c24:	51 05       	cpc	r21, r1
    1c26:	0c f4       	brge	.+2      	; 0x1c2a <sliding_menu+0x974>
    1c28:	b6 cf       	rjmp	.-148    	; 0x1b96 <sliding_menu+0x8e0>
			
			led[pgm_read_byte(&(matrix[row_title - 2][offset_impar + i + s]))] = colors[8];	// IMPAR
			
			led[pgm_read_byte(&matrix[row_title - 4][offset_impar + i + s])] = colors[8];	// IMPAR
		}
		led[pgm_read_byte(&matrix[row_title][offset_impar + i - 1])] = led_off;
    1c2a:	fc 01       	movw	r30, r24
    1c2c:	e1 56       	subi	r30, 0x61	; 97
    1c2e:	ff 4f       	sbci	r31, 0xFF	; 255
    1c30:	ee 0f       	add	r30, r30
    1c32:	ff 1f       	adc	r31, r31
    1c34:	e8 58       	subi	r30, 0x88	; 136
    1c36:	ff 4f       	sbci	r31, 0xFF	; 255
    1c38:	e4 91       	lpm	r30, Z
    1c3a:	f0 e0       	ldi	r31, 0x00	; 0
    1c3c:	9f 01       	movw	r18, r30
    1c3e:	22 0f       	add	r18, r18
    1c40:	33 1f       	adc	r19, r19
    1c42:	e2 0f       	add	r30, r18
    1c44:	f3 1f       	adc	r31, r19
    1c46:	e7 54       	subi	r30, 0x47	; 71
    1c48:	fe 4f       	sbci	r31, 0xFE	; 254
    1c4a:	20 91 a5 01 	lds	r18, 0x01A5	; 0x8001a5 <led_off>
    1c4e:	30 91 a6 01 	lds	r19, 0x01A6	; 0x8001a6 <led_off+0x1>
    1c52:	40 91 a7 01 	lds	r20, 0x01A7	; 0x8001a7 <led_off+0x2>
    1c56:	20 83       	st	Z, r18
    1c58:	31 83       	std	Z+1, r19	; 0x01
    1c5a:	42 83       	std	Z+2, r20	; 0x02
		led[pgm_read_byte(&matrix[row_title - 2][offset_impar + i - 1])] = led_off;
    1c5c:	fc 01       	movw	r30, r24
    1c5e:	e9 57       	subi	r30, 0x79	; 121
    1c60:	ff 4f       	sbci	r31, 0xFF	; 255
    1c62:	ee 0f       	add	r30, r30
    1c64:	ff 1f       	adc	r31, r31
    1c66:	e8 58       	subi	r30, 0x88	; 136
    1c68:	ff 4f       	sbci	r31, 0xFF	; 255
    1c6a:	e4 91       	lpm	r30, Z
    1c6c:	f0 e0       	ldi	r31, 0x00	; 0
    1c6e:	bf 01       	movw	r22, r30
    1c70:	66 0f       	add	r22, r22
    1c72:	77 1f       	adc	r23, r23
    1c74:	e6 0f       	add	r30, r22
    1c76:	f7 1f       	adc	r31, r23
    1c78:	e7 54       	subi	r30, 0x47	; 71
    1c7a:	fe 4f       	sbci	r31, 0xFE	; 254
    1c7c:	20 83       	st	Z, r18
    1c7e:	31 83       	std	Z+1, r19	; 0x01
    1c80:	42 83       	std	Z+2, r20	; 0x02
		led[pgm_read_byte(&matrix[row_title - 4][offset_impar + i - 1])] = led_off;
    1c82:	fc 01       	movw	r30, r24
    1c84:	e1 59       	subi	r30, 0x91	; 145
    1c86:	ff 4f       	sbci	r31, 0xFF	; 255
    1c88:	ee 0f       	add	r30, r30
    1c8a:	ff 1f       	adc	r31, r31
    1c8c:	e8 58       	subi	r30, 0x88	; 136
    1c8e:	ff 4f       	sbci	r31, 0xFF	; 255
    1c90:	e4 91       	lpm	r30, Z
    1c92:	f0 e0       	ldi	r31, 0x00	; 0
    1c94:	bf 01       	movw	r22, r30
    1c96:	66 0f       	add	r22, r22
    1c98:	77 1f       	adc	r23, r23
    1c9a:	e6 0f       	add	r30, r22
    1c9c:	f7 1f       	adc	r31, r23
    1c9e:	e7 54       	subi	r30, 0x47	; 71
    1ca0:	fe 4f       	sbci	r31, 0xFE	; 254
    1ca2:	20 83       	st	Z, r18
    1ca4:	31 83       	std	Z+1, r19	; 0x01
    1ca6:	42 83       	std	Z+2, r20	; 0x02
		
		led[pgm_read_byte(&matrix[row_title - 1][offset_par - i - 2])] = colors[4];		// PAR
    1ca8:	ed e1       	ldi	r30, 0x1D	; 29
    1caa:	f0 e0       	ldi	r31, 0x00	; 0
    1cac:	e8 1b       	sub	r30, r24
    1cae:	f9 0b       	sbc	r31, r25
    1cb0:	e8 55       	subi	r30, 0x58	; 88
    1cb2:	ff 4f       	sbci	r31, 0xFF	; 255
    1cb4:	ee 0f       	add	r30, r30
    1cb6:	ff 1f       	adc	r31, r31
    1cb8:	e8 58       	subi	r30, 0x88	; 136
    1cba:	ff 4f       	sbci	r31, 0xFF	; 255
    1cbc:	e4 91       	lpm	r30, Z
    1cbe:	f0 e0       	ldi	r31, 0x00	; 0
    1cc0:	bf 01       	movw	r22, r30
    1cc2:	66 0f       	add	r22, r22
    1cc4:	77 1f       	adc	r23, r23
    1cc6:	e6 0f       	add	r30, r22
    1cc8:	f7 1f       	adc	r31, r23
    1cca:	e7 54       	subi	r30, 0x47	; 71
    1ccc:	fe 4f       	sbci	r31, 0xFE	; 254
    1cce:	c0 90 0e 01 	lds	r12, 0x010E	; 0x80010e <colors+0xc>
    1cd2:	d0 90 0f 01 	lds	r13, 0x010F	; 0x80010f <colors+0xd>
    1cd6:	e0 90 10 01 	lds	r14, 0x0110	; 0x800110 <colors+0xe>
    1cda:	c0 82       	st	Z, r12
    1cdc:	d1 82       	std	Z+1, r13	; 0x01
    1cde:	e2 82       	std	Z+2, r14	; 0x02
		led[pgm_read_byte(&matrix[row_title - 1][offset_par - i - 2 - 1])] = led_off;
    1ce0:	ec e1       	ldi	r30, 0x1C	; 28
    1ce2:	f0 e0       	ldi	r31, 0x00	; 0
    1ce4:	e8 1b       	sub	r30, r24
    1ce6:	f9 0b       	sbc	r31, r25
    1ce8:	e8 55       	subi	r30, 0x58	; 88
    1cea:	ff 4f       	sbci	r31, 0xFF	; 255
    1cec:	ee 0f       	add	r30, r30
    1cee:	ff 1f       	adc	r31, r31
    1cf0:	e8 58       	subi	r30, 0x88	; 136
    1cf2:	ff 4f       	sbci	r31, 0xFF	; 255
    1cf4:	e4 91       	lpm	r30, Z
    1cf6:	f0 e0       	ldi	r31, 0x00	; 0
    1cf8:	bf 01       	movw	r22, r30
    1cfa:	66 0f       	add	r22, r22
    1cfc:	77 1f       	adc	r23, r23
    1cfe:	e6 0f       	add	r30, r22
    1d00:	f7 1f       	adc	r31, r23
    1d02:	e7 54       	subi	r30, 0x47	; 71
    1d04:	fe 4f       	sbci	r31, 0xFE	; 254
    1d06:	20 83       	st	Z, r18
    1d08:	31 83       	std	Z+1, r19	; 0x01
    1d0a:	42 83       	std	Z+2, r20	; 0x02
		
		led[pgm_read_byte(&matrix[row_title - 3][offset_par - i])] = colors[4];			// PAR
    1d0c:	ef e1       	ldi	r30, 0x1F	; 31
    1d0e:	f0 e0       	ldi	r31, 0x00	; 0
    1d10:	e8 1b       	sub	r30, r24
    1d12:	f9 0b       	sbc	r31, r25
    1d14:	e0 57       	subi	r30, 0x70	; 112
    1d16:	ff 4f       	sbci	r31, 0xFF	; 255
    1d18:	ee 0f       	add	r30, r30
    1d1a:	ff 1f       	adc	r31, r31
    1d1c:	e8 58       	subi	r30, 0x88	; 136
    1d1e:	ff 4f       	sbci	r31, 0xFF	; 255
    1d20:	e4 91       	lpm	r30, Z
    1d22:	f0 e0       	ldi	r31, 0x00	; 0
    1d24:	bf 01       	movw	r22, r30
    1d26:	66 0f       	add	r22, r22
    1d28:	77 1f       	adc	r23, r23
    1d2a:	e6 0f       	add	r30, r22
    1d2c:	f7 1f       	adc	r31, r23
    1d2e:	e7 54       	subi	r30, 0x47	; 71
    1d30:	fe 4f       	sbci	r31, 0xFE	; 254
    1d32:	c0 82       	st	Z, r12
    1d34:	d1 82       	std	Z+1, r13	; 0x01
    1d36:	e2 82       	std	Z+2, r14	; 0x02
		led[pgm_read_byte(&matrix[row_title - 3][offset_par - i - 1])] = led_off;
    1d38:	ee e1       	ldi	r30, 0x1E	; 30
    1d3a:	f0 e0       	ldi	r31, 0x00	; 0
    1d3c:	e8 1b       	sub	r30, r24
    1d3e:	f9 0b       	sbc	r31, r25
    1d40:	e0 57       	subi	r30, 0x70	; 112
    1d42:	ff 4f       	sbci	r31, 0xFF	; 255
    1d44:	ee 0f       	add	r30, r30
    1d46:	ff 1f       	adc	r31, r31
    1d48:	e8 58       	subi	r30, 0x88	; 136
    1d4a:	ff 4f       	sbci	r31, 0xFF	; 255
    1d4c:	e4 91       	lpm	r30, Z
    1d4e:	f0 e0       	ldi	r31, 0x00	; 0
    1d50:	cf 01       	movw	r24, r30
    1d52:	88 0f       	add	r24, r24
    1d54:	99 1f       	adc	r25, r25
    1d56:	e8 0f       	add	r30, r24
    1d58:	f9 1f       	adc	r31, r25
    1d5a:	e7 54       	subi	r30, 0x47	; 71
    1d5c:	fe 4f       	sbci	r31, 0xFE	; 254
    1d5e:	20 83       	st	Z, r18
    1d60:	31 83       	std	Z+1, r19	; 0x01
    1d62:	42 83       	std	Z+2, r20	; 0x02
		
		i++;
    1d64:	cf 5f       	subi	r28, 0xFF	; 255
		
		if ( i ==  31 ) // collunm  - 1 + 31
    1d66:	cf 31       	cpi	r28, 0x1F	; 31
    1d68:	09 f4       	brne	.+2      	; 0x1d6c <sliding_menu+0xab6>
		{
			i = 0;
    1d6a:	c0 e0       	ldi	r28, 0x00	; 0
		}
		ws2812_setleds(led,MAXPIX);
    1d6c:	6c e2       	ldi	r22, 0x2C	; 44
    1d6e:	71 e0       	ldi	r23, 0x01	; 1
    1d70:	89 eb       	ldi	r24, 0xB9	; 185
    1d72:	91 e0       	ldi	r25, 0x01	; 1
    1d74:	0e 94 cb 01 	call	0x396	; 0x396 <ws2812_setleds>
    1d78:	2f ef       	ldi	r18, 0xFF	; 255
    1d7a:	84 e3       	ldi	r24, 0x34	; 52
    1d7c:	9c e0       	ldi	r25, 0x0C	; 12
    1d7e:	21 50       	subi	r18, 0x01	; 1
    1d80:	80 40       	sbci	r24, 0x00	; 0
    1d82:	90 40       	sbci	r25, 0x00	; 0
    1d84:	e1 f7       	brne	.-8      	; 0x1d7e <sliding_menu+0xac8>
    1d86:	00 c0       	rjmp	.+0      	; 0x1d88 <sliding_menu+0xad2>
    1d88:	00 00       	nop
    1d8a:	96 ca       	rjmp	.-2772   	; 0x12b8 <sliding_menu+0x2>

00001d8c <__tablejump2__>:
    1d8c:	ee 0f       	add	r30, r30
    1d8e:	ff 1f       	adc	r31, r31
    1d90:	05 90       	lpm	r0, Z+
    1d92:	f4 91       	lpm	r31, Z
    1d94:	e0 2d       	mov	r30, r0
    1d96:	09 94       	ijmp

00001d98 <vfprintf>:
    1d98:	ab e0       	ldi	r26, 0x0B	; 11
    1d9a:	b0 e0       	ldi	r27, 0x00	; 0
    1d9c:	e2 ed       	ldi	r30, 0xD2	; 210
    1d9e:	fe e0       	ldi	r31, 0x0E	; 14
    1da0:	0c 94 5d 11 	jmp	0x22ba	; 0x22ba <__prologue_saves__>
    1da4:	6c 01       	movw	r12, r24
    1da6:	7b 01       	movw	r14, r22
    1da8:	8a 01       	movw	r16, r20
    1daa:	fc 01       	movw	r30, r24
    1dac:	17 82       	std	Z+7, r1	; 0x07
    1dae:	16 82       	std	Z+6, r1	; 0x06
    1db0:	83 81       	ldd	r24, Z+3	; 0x03
    1db2:	81 ff       	sbrs	r24, 1
    1db4:	cc c1       	rjmp	.+920    	; 0x214e <vfprintf+0x3b6>
    1db6:	ce 01       	movw	r24, r28
    1db8:	01 96       	adiw	r24, 0x01	; 1
    1dba:	3c 01       	movw	r6, r24
    1dbc:	f6 01       	movw	r30, r12
    1dbe:	93 81       	ldd	r25, Z+3	; 0x03
    1dc0:	f7 01       	movw	r30, r14
    1dc2:	93 fd       	sbrc	r25, 3
    1dc4:	85 91       	lpm	r24, Z+
    1dc6:	93 ff       	sbrs	r25, 3
    1dc8:	81 91       	ld	r24, Z+
    1dca:	7f 01       	movw	r14, r30
    1dcc:	88 23       	and	r24, r24
    1dce:	09 f4       	brne	.+2      	; 0x1dd2 <vfprintf+0x3a>
    1dd0:	ba c1       	rjmp	.+884    	; 0x2146 <vfprintf+0x3ae>
    1dd2:	85 32       	cpi	r24, 0x25	; 37
    1dd4:	39 f4       	brne	.+14     	; 0x1de4 <vfprintf+0x4c>
    1dd6:	93 fd       	sbrc	r25, 3
    1dd8:	85 91       	lpm	r24, Z+
    1dda:	93 ff       	sbrs	r25, 3
    1ddc:	81 91       	ld	r24, Z+
    1dde:	7f 01       	movw	r14, r30
    1de0:	85 32       	cpi	r24, 0x25	; 37
    1de2:	29 f4       	brne	.+10     	; 0x1dee <vfprintf+0x56>
    1de4:	b6 01       	movw	r22, r12
    1de6:	90 e0       	ldi	r25, 0x00	; 0
    1de8:	0e 94 c3 10 	call	0x2186	; 0x2186 <fputc>
    1dec:	e7 cf       	rjmp	.-50     	; 0x1dbc <vfprintf+0x24>
    1dee:	91 2c       	mov	r9, r1
    1df0:	21 2c       	mov	r2, r1
    1df2:	31 2c       	mov	r3, r1
    1df4:	ff e1       	ldi	r31, 0x1F	; 31
    1df6:	f3 15       	cp	r31, r3
    1df8:	d8 f0       	brcs	.+54     	; 0x1e30 <vfprintf+0x98>
    1dfa:	8b 32       	cpi	r24, 0x2B	; 43
    1dfc:	79 f0       	breq	.+30     	; 0x1e1c <vfprintf+0x84>
    1dfe:	38 f4       	brcc	.+14     	; 0x1e0e <vfprintf+0x76>
    1e00:	80 32       	cpi	r24, 0x20	; 32
    1e02:	79 f0       	breq	.+30     	; 0x1e22 <vfprintf+0x8a>
    1e04:	83 32       	cpi	r24, 0x23	; 35
    1e06:	a1 f4       	brne	.+40     	; 0x1e30 <vfprintf+0x98>
    1e08:	23 2d       	mov	r18, r3
    1e0a:	20 61       	ori	r18, 0x10	; 16
    1e0c:	1d c0       	rjmp	.+58     	; 0x1e48 <vfprintf+0xb0>
    1e0e:	8d 32       	cpi	r24, 0x2D	; 45
    1e10:	61 f0       	breq	.+24     	; 0x1e2a <vfprintf+0x92>
    1e12:	80 33       	cpi	r24, 0x30	; 48
    1e14:	69 f4       	brne	.+26     	; 0x1e30 <vfprintf+0x98>
    1e16:	23 2d       	mov	r18, r3
    1e18:	21 60       	ori	r18, 0x01	; 1
    1e1a:	16 c0       	rjmp	.+44     	; 0x1e48 <vfprintf+0xb0>
    1e1c:	83 2d       	mov	r24, r3
    1e1e:	82 60       	ori	r24, 0x02	; 2
    1e20:	38 2e       	mov	r3, r24
    1e22:	e3 2d       	mov	r30, r3
    1e24:	e4 60       	ori	r30, 0x04	; 4
    1e26:	3e 2e       	mov	r3, r30
    1e28:	2a c0       	rjmp	.+84     	; 0x1e7e <vfprintf+0xe6>
    1e2a:	f3 2d       	mov	r31, r3
    1e2c:	f8 60       	ori	r31, 0x08	; 8
    1e2e:	1d c0       	rjmp	.+58     	; 0x1e6a <vfprintf+0xd2>
    1e30:	37 fc       	sbrc	r3, 7
    1e32:	2d c0       	rjmp	.+90     	; 0x1e8e <vfprintf+0xf6>
    1e34:	20 ed       	ldi	r18, 0xD0	; 208
    1e36:	28 0f       	add	r18, r24
    1e38:	2a 30       	cpi	r18, 0x0A	; 10
    1e3a:	40 f0       	brcs	.+16     	; 0x1e4c <vfprintf+0xb4>
    1e3c:	8e 32       	cpi	r24, 0x2E	; 46
    1e3e:	b9 f4       	brne	.+46     	; 0x1e6e <vfprintf+0xd6>
    1e40:	36 fc       	sbrc	r3, 6
    1e42:	81 c1       	rjmp	.+770    	; 0x2146 <vfprintf+0x3ae>
    1e44:	23 2d       	mov	r18, r3
    1e46:	20 64       	ori	r18, 0x40	; 64
    1e48:	32 2e       	mov	r3, r18
    1e4a:	19 c0       	rjmp	.+50     	; 0x1e7e <vfprintf+0xe6>
    1e4c:	36 fe       	sbrs	r3, 6
    1e4e:	06 c0       	rjmp	.+12     	; 0x1e5c <vfprintf+0xc4>
    1e50:	8a e0       	ldi	r24, 0x0A	; 10
    1e52:	98 9e       	mul	r9, r24
    1e54:	20 0d       	add	r18, r0
    1e56:	11 24       	eor	r1, r1
    1e58:	92 2e       	mov	r9, r18
    1e5a:	11 c0       	rjmp	.+34     	; 0x1e7e <vfprintf+0xe6>
    1e5c:	ea e0       	ldi	r30, 0x0A	; 10
    1e5e:	2e 9e       	mul	r2, r30
    1e60:	20 0d       	add	r18, r0
    1e62:	11 24       	eor	r1, r1
    1e64:	22 2e       	mov	r2, r18
    1e66:	f3 2d       	mov	r31, r3
    1e68:	f0 62       	ori	r31, 0x20	; 32
    1e6a:	3f 2e       	mov	r3, r31
    1e6c:	08 c0       	rjmp	.+16     	; 0x1e7e <vfprintf+0xe6>
    1e6e:	8c 36       	cpi	r24, 0x6C	; 108
    1e70:	21 f4       	brne	.+8      	; 0x1e7a <vfprintf+0xe2>
    1e72:	83 2d       	mov	r24, r3
    1e74:	80 68       	ori	r24, 0x80	; 128
    1e76:	38 2e       	mov	r3, r24
    1e78:	02 c0       	rjmp	.+4      	; 0x1e7e <vfprintf+0xe6>
    1e7a:	88 36       	cpi	r24, 0x68	; 104
    1e7c:	41 f4       	brne	.+16     	; 0x1e8e <vfprintf+0xf6>
    1e7e:	f7 01       	movw	r30, r14
    1e80:	93 fd       	sbrc	r25, 3
    1e82:	85 91       	lpm	r24, Z+
    1e84:	93 ff       	sbrs	r25, 3
    1e86:	81 91       	ld	r24, Z+
    1e88:	7f 01       	movw	r14, r30
    1e8a:	81 11       	cpse	r24, r1
    1e8c:	b3 cf       	rjmp	.-154    	; 0x1df4 <vfprintf+0x5c>
    1e8e:	98 2f       	mov	r25, r24
    1e90:	9f 7d       	andi	r25, 0xDF	; 223
    1e92:	95 54       	subi	r25, 0x45	; 69
    1e94:	93 30       	cpi	r25, 0x03	; 3
    1e96:	28 f4       	brcc	.+10     	; 0x1ea2 <vfprintf+0x10a>
    1e98:	0c 5f       	subi	r16, 0xFC	; 252
    1e9a:	1f 4f       	sbci	r17, 0xFF	; 255
    1e9c:	9f e3       	ldi	r25, 0x3F	; 63
    1e9e:	99 83       	std	Y+1, r25	; 0x01
    1ea0:	0d c0       	rjmp	.+26     	; 0x1ebc <vfprintf+0x124>
    1ea2:	83 36       	cpi	r24, 0x63	; 99
    1ea4:	31 f0       	breq	.+12     	; 0x1eb2 <vfprintf+0x11a>
    1ea6:	83 37       	cpi	r24, 0x73	; 115
    1ea8:	71 f0       	breq	.+28     	; 0x1ec6 <vfprintf+0x12e>
    1eaa:	83 35       	cpi	r24, 0x53	; 83
    1eac:	09 f0       	breq	.+2      	; 0x1eb0 <vfprintf+0x118>
    1eae:	59 c0       	rjmp	.+178    	; 0x1f62 <vfprintf+0x1ca>
    1eb0:	21 c0       	rjmp	.+66     	; 0x1ef4 <vfprintf+0x15c>
    1eb2:	f8 01       	movw	r30, r16
    1eb4:	80 81       	ld	r24, Z
    1eb6:	89 83       	std	Y+1, r24	; 0x01
    1eb8:	0e 5f       	subi	r16, 0xFE	; 254
    1eba:	1f 4f       	sbci	r17, 0xFF	; 255
    1ebc:	88 24       	eor	r8, r8
    1ebe:	83 94       	inc	r8
    1ec0:	91 2c       	mov	r9, r1
    1ec2:	53 01       	movw	r10, r6
    1ec4:	13 c0       	rjmp	.+38     	; 0x1eec <vfprintf+0x154>
    1ec6:	28 01       	movw	r4, r16
    1ec8:	f2 e0       	ldi	r31, 0x02	; 2
    1eca:	4f 0e       	add	r4, r31
    1ecc:	51 1c       	adc	r5, r1
    1ece:	f8 01       	movw	r30, r16
    1ed0:	a0 80       	ld	r10, Z
    1ed2:	b1 80       	ldd	r11, Z+1	; 0x01
    1ed4:	36 fe       	sbrs	r3, 6
    1ed6:	03 c0       	rjmp	.+6      	; 0x1ede <vfprintf+0x146>
    1ed8:	69 2d       	mov	r22, r9
    1eda:	70 e0       	ldi	r23, 0x00	; 0
    1edc:	02 c0       	rjmp	.+4      	; 0x1ee2 <vfprintf+0x14a>
    1ede:	6f ef       	ldi	r22, 0xFF	; 255
    1ee0:	7f ef       	ldi	r23, 0xFF	; 255
    1ee2:	c5 01       	movw	r24, r10
    1ee4:	0e 94 b8 10 	call	0x2170	; 0x2170 <strnlen>
    1ee8:	4c 01       	movw	r8, r24
    1eea:	82 01       	movw	r16, r4
    1eec:	f3 2d       	mov	r31, r3
    1eee:	ff 77       	andi	r31, 0x7F	; 127
    1ef0:	3f 2e       	mov	r3, r31
    1ef2:	16 c0       	rjmp	.+44     	; 0x1f20 <vfprintf+0x188>
    1ef4:	28 01       	movw	r4, r16
    1ef6:	22 e0       	ldi	r18, 0x02	; 2
    1ef8:	42 0e       	add	r4, r18
    1efa:	51 1c       	adc	r5, r1
    1efc:	f8 01       	movw	r30, r16
    1efe:	a0 80       	ld	r10, Z
    1f00:	b1 80       	ldd	r11, Z+1	; 0x01
    1f02:	36 fe       	sbrs	r3, 6
    1f04:	03 c0       	rjmp	.+6      	; 0x1f0c <vfprintf+0x174>
    1f06:	69 2d       	mov	r22, r9
    1f08:	70 e0       	ldi	r23, 0x00	; 0
    1f0a:	02 c0       	rjmp	.+4      	; 0x1f10 <vfprintf+0x178>
    1f0c:	6f ef       	ldi	r22, 0xFF	; 255
    1f0e:	7f ef       	ldi	r23, 0xFF	; 255
    1f10:	c5 01       	movw	r24, r10
    1f12:	0e 94 ad 10 	call	0x215a	; 0x215a <strnlen_P>
    1f16:	4c 01       	movw	r8, r24
    1f18:	f3 2d       	mov	r31, r3
    1f1a:	f0 68       	ori	r31, 0x80	; 128
    1f1c:	3f 2e       	mov	r3, r31
    1f1e:	82 01       	movw	r16, r4
    1f20:	33 fc       	sbrc	r3, 3
    1f22:	1b c0       	rjmp	.+54     	; 0x1f5a <vfprintf+0x1c2>
    1f24:	82 2d       	mov	r24, r2
    1f26:	90 e0       	ldi	r25, 0x00	; 0
    1f28:	88 16       	cp	r8, r24
    1f2a:	99 06       	cpc	r9, r25
    1f2c:	b0 f4       	brcc	.+44     	; 0x1f5a <vfprintf+0x1c2>
    1f2e:	b6 01       	movw	r22, r12
    1f30:	80 e2       	ldi	r24, 0x20	; 32
    1f32:	90 e0       	ldi	r25, 0x00	; 0
    1f34:	0e 94 c3 10 	call	0x2186	; 0x2186 <fputc>
    1f38:	2a 94       	dec	r2
    1f3a:	f4 cf       	rjmp	.-24     	; 0x1f24 <vfprintf+0x18c>
    1f3c:	f5 01       	movw	r30, r10
    1f3e:	37 fc       	sbrc	r3, 7
    1f40:	85 91       	lpm	r24, Z+
    1f42:	37 fe       	sbrs	r3, 7
    1f44:	81 91       	ld	r24, Z+
    1f46:	5f 01       	movw	r10, r30
    1f48:	b6 01       	movw	r22, r12
    1f4a:	90 e0       	ldi	r25, 0x00	; 0
    1f4c:	0e 94 c3 10 	call	0x2186	; 0x2186 <fputc>
    1f50:	21 10       	cpse	r2, r1
    1f52:	2a 94       	dec	r2
    1f54:	21 e0       	ldi	r18, 0x01	; 1
    1f56:	82 1a       	sub	r8, r18
    1f58:	91 08       	sbc	r9, r1
    1f5a:	81 14       	cp	r8, r1
    1f5c:	91 04       	cpc	r9, r1
    1f5e:	71 f7       	brne	.-36     	; 0x1f3c <vfprintf+0x1a4>
    1f60:	e8 c0       	rjmp	.+464    	; 0x2132 <vfprintf+0x39a>
    1f62:	84 36       	cpi	r24, 0x64	; 100
    1f64:	11 f0       	breq	.+4      	; 0x1f6a <vfprintf+0x1d2>
    1f66:	89 36       	cpi	r24, 0x69	; 105
    1f68:	41 f5       	brne	.+80     	; 0x1fba <vfprintf+0x222>
    1f6a:	f8 01       	movw	r30, r16
    1f6c:	37 fe       	sbrs	r3, 7
    1f6e:	07 c0       	rjmp	.+14     	; 0x1f7e <vfprintf+0x1e6>
    1f70:	60 81       	ld	r22, Z
    1f72:	71 81       	ldd	r23, Z+1	; 0x01
    1f74:	82 81       	ldd	r24, Z+2	; 0x02
    1f76:	93 81       	ldd	r25, Z+3	; 0x03
    1f78:	0c 5f       	subi	r16, 0xFC	; 252
    1f7a:	1f 4f       	sbci	r17, 0xFF	; 255
    1f7c:	08 c0       	rjmp	.+16     	; 0x1f8e <vfprintf+0x1f6>
    1f7e:	60 81       	ld	r22, Z
    1f80:	71 81       	ldd	r23, Z+1	; 0x01
    1f82:	07 2e       	mov	r0, r23
    1f84:	00 0c       	add	r0, r0
    1f86:	88 0b       	sbc	r24, r24
    1f88:	99 0b       	sbc	r25, r25
    1f8a:	0e 5f       	subi	r16, 0xFE	; 254
    1f8c:	1f 4f       	sbci	r17, 0xFF	; 255
    1f8e:	f3 2d       	mov	r31, r3
    1f90:	ff 76       	andi	r31, 0x6F	; 111
    1f92:	3f 2e       	mov	r3, r31
    1f94:	97 ff       	sbrs	r25, 7
    1f96:	09 c0       	rjmp	.+18     	; 0x1faa <vfprintf+0x212>
    1f98:	90 95       	com	r25
    1f9a:	80 95       	com	r24
    1f9c:	70 95       	com	r23
    1f9e:	61 95       	neg	r22
    1fa0:	7f 4f       	sbci	r23, 0xFF	; 255
    1fa2:	8f 4f       	sbci	r24, 0xFF	; 255
    1fa4:	9f 4f       	sbci	r25, 0xFF	; 255
    1fa6:	f0 68       	ori	r31, 0x80	; 128
    1fa8:	3f 2e       	mov	r3, r31
    1faa:	2a e0       	ldi	r18, 0x0A	; 10
    1fac:	30 e0       	ldi	r19, 0x00	; 0
    1fae:	a3 01       	movw	r20, r6
    1fb0:	0e 94 ff 10 	call	0x21fe	; 0x21fe <__ultoa_invert>
    1fb4:	88 2e       	mov	r8, r24
    1fb6:	86 18       	sub	r8, r6
    1fb8:	45 c0       	rjmp	.+138    	; 0x2044 <vfprintf+0x2ac>
    1fba:	85 37       	cpi	r24, 0x75	; 117
    1fbc:	31 f4       	brne	.+12     	; 0x1fca <vfprintf+0x232>
    1fbe:	23 2d       	mov	r18, r3
    1fc0:	2f 7e       	andi	r18, 0xEF	; 239
    1fc2:	b2 2e       	mov	r11, r18
    1fc4:	2a e0       	ldi	r18, 0x0A	; 10
    1fc6:	30 e0       	ldi	r19, 0x00	; 0
    1fc8:	25 c0       	rjmp	.+74     	; 0x2014 <vfprintf+0x27c>
    1fca:	93 2d       	mov	r25, r3
    1fcc:	99 7f       	andi	r25, 0xF9	; 249
    1fce:	b9 2e       	mov	r11, r25
    1fd0:	8f 36       	cpi	r24, 0x6F	; 111
    1fd2:	c1 f0       	breq	.+48     	; 0x2004 <vfprintf+0x26c>
    1fd4:	18 f4       	brcc	.+6      	; 0x1fdc <vfprintf+0x244>
    1fd6:	88 35       	cpi	r24, 0x58	; 88
    1fd8:	79 f0       	breq	.+30     	; 0x1ff8 <vfprintf+0x260>
    1fda:	b5 c0       	rjmp	.+362    	; 0x2146 <vfprintf+0x3ae>
    1fdc:	80 37       	cpi	r24, 0x70	; 112
    1fde:	19 f0       	breq	.+6      	; 0x1fe6 <vfprintf+0x24e>
    1fe0:	88 37       	cpi	r24, 0x78	; 120
    1fe2:	21 f0       	breq	.+8      	; 0x1fec <vfprintf+0x254>
    1fe4:	b0 c0       	rjmp	.+352    	; 0x2146 <vfprintf+0x3ae>
    1fe6:	e9 2f       	mov	r30, r25
    1fe8:	e0 61       	ori	r30, 0x10	; 16
    1fea:	be 2e       	mov	r11, r30
    1fec:	b4 fe       	sbrs	r11, 4
    1fee:	0d c0       	rjmp	.+26     	; 0x200a <vfprintf+0x272>
    1ff0:	fb 2d       	mov	r31, r11
    1ff2:	f4 60       	ori	r31, 0x04	; 4
    1ff4:	bf 2e       	mov	r11, r31
    1ff6:	09 c0       	rjmp	.+18     	; 0x200a <vfprintf+0x272>
    1ff8:	34 fe       	sbrs	r3, 4
    1ffa:	0a c0       	rjmp	.+20     	; 0x2010 <vfprintf+0x278>
    1ffc:	29 2f       	mov	r18, r25
    1ffe:	26 60       	ori	r18, 0x06	; 6
    2000:	b2 2e       	mov	r11, r18
    2002:	06 c0       	rjmp	.+12     	; 0x2010 <vfprintf+0x278>
    2004:	28 e0       	ldi	r18, 0x08	; 8
    2006:	30 e0       	ldi	r19, 0x00	; 0
    2008:	05 c0       	rjmp	.+10     	; 0x2014 <vfprintf+0x27c>
    200a:	20 e1       	ldi	r18, 0x10	; 16
    200c:	30 e0       	ldi	r19, 0x00	; 0
    200e:	02 c0       	rjmp	.+4      	; 0x2014 <vfprintf+0x27c>
    2010:	20 e1       	ldi	r18, 0x10	; 16
    2012:	32 e0       	ldi	r19, 0x02	; 2
    2014:	f8 01       	movw	r30, r16
    2016:	b7 fe       	sbrs	r11, 7
    2018:	07 c0       	rjmp	.+14     	; 0x2028 <vfprintf+0x290>
    201a:	60 81       	ld	r22, Z
    201c:	71 81       	ldd	r23, Z+1	; 0x01
    201e:	82 81       	ldd	r24, Z+2	; 0x02
    2020:	93 81       	ldd	r25, Z+3	; 0x03
    2022:	0c 5f       	subi	r16, 0xFC	; 252
    2024:	1f 4f       	sbci	r17, 0xFF	; 255
    2026:	06 c0       	rjmp	.+12     	; 0x2034 <vfprintf+0x29c>
    2028:	60 81       	ld	r22, Z
    202a:	71 81       	ldd	r23, Z+1	; 0x01
    202c:	80 e0       	ldi	r24, 0x00	; 0
    202e:	90 e0       	ldi	r25, 0x00	; 0
    2030:	0e 5f       	subi	r16, 0xFE	; 254
    2032:	1f 4f       	sbci	r17, 0xFF	; 255
    2034:	a3 01       	movw	r20, r6
    2036:	0e 94 ff 10 	call	0x21fe	; 0x21fe <__ultoa_invert>
    203a:	88 2e       	mov	r8, r24
    203c:	86 18       	sub	r8, r6
    203e:	fb 2d       	mov	r31, r11
    2040:	ff 77       	andi	r31, 0x7F	; 127
    2042:	3f 2e       	mov	r3, r31
    2044:	36 fe       	sbrs	r3, 6
    2046:	0d c0       	rjmp	.+26     	; 0x2062 <vfprintf+0x2ca>
    2048:	23 2d       	mov	r18, r3
    204a:	2e 7f       	andi	r18, 0xFE	; 254
    204c:	a2 2e       	mov	r10, r18
    204e:	89 14       	cp	r8, r9
    2050:	58 f4       	brcc	.+22     	; 0x2068 <vfprintf+0x2d0>
    2052:	34 fe       	sbrs	r3, 4
    2054:	0b c0       	rjmp	.+22     	; 0x206c <vfprintf+0x2d4>
    2056:	32 fc       	sbrc	r3, 2
    2058:	09 c0       	rjmp	.+18     	; 0x206c <vfprintf+0x2d4>
    205a:	83 2d       	mov	r24, r3
    205c:	8e 7e       	andi	r24, 0xEE	; 238
    205e:	a8 2e       	mov	r10, r24
    2060:	05 c0       	rjmp	.+10     	; 0x206c <vfprintf+0x2d4>
    2062:	b8 2c       	mov	r11, r8
    2064:	a3 2c       	mov	r10, r3
    2066:	03 c0       	rjmp	.+6      	; 0x206e <vfprintf+0x2d6>
    2068:	b8 2c       	mov	r11, r8
    206a:	01 c0       	rjmp	.+2      	; 0x206e <vfprintf+0x2d6>
    206c:	b9 2c       	mov	r11, r9
    206e:	a4 fe       	sbrs	r10, 4
    2070:	0f c0       	rjmp	.+30     	; 0x2090 <vfprintf+0x2f8>
    2072:	fe 01       	movw	r30, r28
    2074:	e8 0d       	add	r30, r8
    2076:	f1 1d       	adc	r31, r1
    2078:	80 81       	ld	r24, Z
    207a:	80 33       	cpi	r24, 0x30	; 48
    207c:	21 f4       	brne	.+8      	; 0x2086 <vfprintf+0x2ee>
    207e:	9a 2d       	mov	r25, r10
    2080:	99 7e       	andi	r25, 0xE9	; 233
    2082:	a9 2e       	mov	r10, r25
    2084:	09 c0       	rjmp	.+18     	; 0x2098 <vfprintf+0x300>
    2086:	a2 fe       	sbrs	r10, 2
    2088:	06 c0       	rjmp	.+12     	; 0x2096 <vfprintf+0x2fe>
    208a:	b3 94       	inc	r11
    208c:	b3 94       	inc	r11
    208e:	04 c0       	rjmp	.+8      	; 0x2098 <vfprintf+0x300>
    2090:	8a 2d       	mov	r24, r10
    2092:	86 78       	andi	r24, 0x86	; 134
    2094:	09 f0       	breq	.+2      	; 0x2098 <vfprintf+0x300>
    2096:	b3 94       	inc	r11
    2098:	a3 fc       	sbrc	r10, 3
    209a:	11 c0       	rjmp	.+34     	; 0x20be <vfprintf+0x326>
    209c:	a0 fe       	sbrs	r10, 0
    209e:	06 c0       	rjmp	.+12     	; 0x20ac <vfprintf+0x314>
    20a0:	b2 14       	cp	r11, r2
    20a2:	88 f4       	brcc	.+34     	; 0x20c6 <vfprintf+0x32e>
    20a4:	28 0c       	add	r2, r8
    20a6:	92 2c       	mov	r9, r2
    20a8:	9b 18       	sub	r9, r11
    20aa:	0e c0       	rjmp	.+28     	; 0x20c8 <vfprintf+0x330>
    20ac:	b2 14       	cp	r11, r2
    20ae:	60 f4       	brcc	.+24     	; 0x20c8 <vfprintf+0x330>
    20b0:	b6 01       	movw	r22, r12
    20b2:	80 e2       	ldi	r24, 0x20	; 32
    20b4:	90 e0       	ldi	r25, 0x00	; 0
    20b6:	0e 94 c3 10 	call	0x2186	; 0x2186 <fputc>
    20ba:	b3 94       	inc	r11
    20bc:	f7 cf       	rjmp	.-18     	; 0x20ac <vfprintf+0x314>
    20be:	b2 14       	cp	r11, r2
    20c0:	18 f4       	brcc	.+6      	; 0x20c8 <vfprintf+0x330>
    20c2:	2b 18       	sub	r2, r11
    20c4:	02 c0       	rjmp	.+4      	; 0x20ca <vfprintf+0x332>
    20c6:	98 2c       	mov	r9, r8
    20c8:	21 2c       	mov	r2, r1
    20ca:	a4 fe       	sbrs	r10, 4
    20cc:	10 c0       	rjmp	.+32     	; 0x20ee <vfprintf+0x356>
    20ce:	b6 01       	movw	r22, r12
    20d0:	80 e3       	ldi	r24, 0x30	; 48
    20d2:	90 e0       	ldi	r25, 0x00	; 0
    20d4:	0e 94 c3 10 	call	0x2186	; 0x2186 <fputc>
    20d8:	a2 fe       	sbrs	r10, 2
    20da:	17 c0       	rjmp	.+46     	; 0x210a <vfprintf+0x372>
    20dc:	a1 fc       	sbrc	r10, 1
    20de:	03 c0       	rjmp	.+6      	; 0x20e6 <vfprintf+0x34e>
    20e0:	88 e7       	ldi	r24, 0x78	; 120
    20e2:	90 e0       	ldi	r25, 0x00	; 0
    20e4:	02 c0       	rjmp	.+4      	; 0x20ea <vfprintf+0x352>
    20e6:	88 e5       	ldi	r24, 0x58	; 88
    20e8:	90 e0       	ldi	r25, 0x00	; 0
    20ea:	b6 01       	movw	r22, r12
    20ec:	0c c0       	rjmp	.+24     	; 0x2106 <vfprintf+0x36e>
    20ee:	8a 2d       	mov	r24, r10
    20f0:	86 78       	andi	r24, 0x86	; 134
    20f2:	59 f0       	breq	.+22     	; 0x210a <vfprintf+0x372>
    20f4:	a1 fe       	sbrs	r10, 1
    20f6:	02 c0       	rjmp	.+4      	; 0x20fc <vfprintf+0x364>
    20f8:	8b e2       	ldi	r24, 0x2B	; 43
    20fa:	01 c0       	rjmp	.+2      	; 0x20fe <vfprintf+0x366>
    20fc:	80 e2       	ldi	r24, 0x20	; 32
    20fe:	a7 fc       	sbrc	r10, 7
    2100:	8d e2       	ldi	r24, 0x2D	; 45
    2102:	b6 01       	movw	r22, r12
    2104:	90 e0       	ldi	r25, 0x00	; 0
    2106:	0e 94 c3 10 	call	0x2186	; 0x2186 <fputc>
    210a:	89 14       	cp	r8, r9
    210c:	38 f4       	brcc	.+14     	; 0x211c <vfprintf+0x384>
    210e:	b6 01       	movw	r22, r12
    2110:	80 e3       	ldi	r24, 0x30	; 48
    2112:	90 e0       	ldi	r25, 0x00	; 0
    2114:	0e 94 c3 10 	call	0x2186	; 0x2186 <fputc>
    2118:	9a 94       	dec	r9
    211a:	f7 cf       	rjmp	.-18     	; 0x210a <vfprintf+0x372>
    211c:	8a 94       	dec	r8
    211e:	f3 01       	movw	r30, r6
    2120:	e8 0d       	add	r30, r8
    2122:	f1 1d       	adc	r31, r1
    2124:	80 81       	ld	r24, Z
    2126:	b6 01       	movw	r22, r12
    2128:	90 e0       	ldi	r25, 0x00	; 0
    212a:	0e 94 c3 10 	call	0x2186	; 0x2186 <fputc>
    212e:	81 10       	cpse	r8, r1
    2130:	f5 cf       	rjmp	.-22     	; 0x211c <vfprintf+0x384>
    2132:	22 20       	and	r2, r2
    2134:	09 f4       	brne	.+2      	; 0x2138 <vfprintf+0x3a0>
    2136:	42 ce       	rjmp	.-892    	; 0x1dbc <vfprintf+0x24>
    2138:	b6 01       	movw	r22, r12
    213a:	80 e2       	ldi	r24, 0x20	; 32
    213c:	90 e0       	ldi	r25, 0x00	; 0
    213e:	0e 94 c3 10 	call	0x2186	; 0x2186 <fputc>
    2142:	2a 94       	dec	r2
    2144:	f6 cf       	rjmp	.-20     	; 0x2132 <vfprintf+0x39a>
    2146:	f6 01       	movw	r30, r12
    2148:	86 81       	ldd	r24, Z+6	; 0x06
    214a:	97 81       	ldd	r25, Z+7	; 0x07
    214c:	02 c0       	rjmp	.+4      	; 0x2152 <vfprintf+0x3ba>
    214e:	8f ef       	ldi	r24, 0xFF	; 255
    2150:	9f ef       	ldi	r25, 0xFF	; 255
    2152:	2b 96       	adiw	r28, 0x0b	; 11
    2154:	e2 e1       	ldi	r30, 0x12	; 18
    2156:	0c 94 79 11 	jmp	0x22f2	; 0x22f2 <__epilogue_restores__>

0000215a <strnlen_P>:
    215a:	fc 01       	movw	r30, r24
    215c:	05 90       	lpm	r0, Z+
    215e:	61 50       	subi	r22, 0x01	; 1
    2160:	70 40       	sbci	r23, 0x00	; 0
    2162:	01 10       	cpse	r0, r1
    2164:	d8 f7       	brcc	.-10     	; 0x215c <strnlen_P+0x2>
    2166:	80 95       	com	r24
    2168:	90 95       	com	r25
    216a:	8e 0f       	add	r24, r30
    216c:	9f 1f       	adc	r25, r31
    216e:	08 95       	ret

00002170 <strnlen>:
    2170:	fc 01       	movw	r30, r24
    2172:	61 50       	subi	r22, 0x01	; 1
    2174:	70 40       	sbci	r23, 0x00	; 0
    2176:	01 90       	ld	r0, Z+
    2178:	01 10       	cpse	r0, r1
    217a:	d8 f7       	brcc	.-10     	; 0x2172 <strnlen+0x2>
    217c:	80 95       	com	r24
    217e:	90 95       	com	r25
    2180:	8e 0f       	add	r24, r30
    2182:	9f 1f       	adc	r25, r31
    2184:	08 95       	ret

00002186 <fputc>:
    2186:	0f 93       	push	r16
    2188:	1f 93       	push	r17
    218a:	cf 93       	push	r28
    218c:	df 93       	push	r29
    218e:	fb 01       	movw	r30, r22
    2190:	23 81       	ldd	r18, Z+3	; 0x03
    2192:	21 fd       	sbrc	r18, 1
    2194:	03 c0       	rjmp	.+6      	; 0x219c <fputc+0x16>
    2196:	8f ef       	ldi	r24, 0xFF	; 255
    2198:	9f ef       	ldi	r25, 0xFF	; 255
    219a:	2c c0       	rjmp	.+88     	; 0x21f4 <fputc+0x6e>
    219c:	22 ff       	sbrs	r18, 2
    219e:	16 c0       	rjmp	.+44     	; 0x21cc <fputc+0x46>
    21a0:	46 81       	ldd	r20, Z+6	; 0x06
    21a2:	57 81       	ldd	r21, Z+7	; 0x07
    21a4:	24 81       	ldd	r18, Z+4	; 0x04
    21a6:	35 81       	ldd	r19, Z+5	; 0x05
    21a8:	42 17       	cp	r20, r18
    21aa:	53 07       	cpc	r21, r19
    21ac:	44 f4       	brge	.+16     	; 0x21be <fputc+0x38>
    21ae:	a0 81       	ld	r26, Z
    21b0:	b1 81       	ldd	r27, Z+1	; 0x01
    21b2:	9d 01       	movw	r18, r26
    21b4:	2f 5f       	subi	r18, 0xFF	; 255
    21b6:	3f 4f       	sbci	r19, 0xFF	; 255
    21b8:	31 83       	std	Z+1, r19	; 0x01
    21ba:	20 83       	st	Z, r18
    21bc:	8c 93       	st	X, r24
    21be:	26 81       	ldd	r18, Z+6	; 0x06
    21c0:	37 81       	ldd	r19, Z+7	; 0x07
    21c2:	2f 5f       	subi	r18, 0xFF	; 255
    21c4:	3f 4f       	sbci	r19, 0xFF	; 255
    21c6:	37 83       	std	Z+7, r19	; 0x07
    21c8:	26 83       	std	Z+6, r18	; 0x06
    21ca:	14 c0       	rjmp	.+40     	; 0x21f4 <fputc+0x6e>
    21cc:	8b 01       	movw	r16, r22
    21ce:	ec 01       	movw	r28, r24
    21d0:	fb 01       	movw	r30, r22
    21d2:	00 84       	ldd	r0, Z+8	; 0x08
    21d4:	f1 85       	ldd	r31, Z+9	; 0x09
    21d6:	e0 2d       	mov	r30, r0
    21d8:	09 95       	icall
    21da:	89 2b       	or	r24, r25
    21dc:	e1 f6       	brne	.-72     	; 0x2196 <fputc+0x10>
    21de:	d8 01       	movw	r26, r16
    21e0:	16 96       	adiw	r26, 0x06	; 6
    21e2:	8d 91       	ld	r24, X+
    21e4:	9c 91       	ld	r25, X
    21e6:	17 97       	sbiw	r26, 0x07	; 7
    21e8:	01 96       	adiw	r24, 0x01	; 1
    21ea:	17 96       	adiw	r26, 0x07	; 7
    21ec:	9c 93       	st	X, r25
    21ee:	8e 93       	st	-X, r24
    21f0:	16 97       	sbiw	r26, 0x06	; 6
    21f2:	ce 01       	movw	r24, r28
    21f4:	df 91       	pop	r29
    21f6:	cf 91       	pop	r28
    21f8:	1f 91       	pop	r17
    21fa:	0f 91       	pop	r16
    21fc:	08 95       	ret

000021fe <__ultoa_invert>:
    21fe:	fa 01       	movw	r30, r20
    2200:	aa 27       	eor	r26, r26
    2202:	28 30       	cpi	r18, 0x08	; 8
    2204:	51 f1       	breq	.+84     	; 0x225a <__ultoa_invert+0x5c>
    2206:	20 31       	cpi	r18, 0x10	; 16
    2208:	81 f1       	breq	.+96     	; 0x226a <__ultoa_invert+0x6c>
    220a:	e8 94       	clt
    220c:	6f 93       	push	r22
    220e:	6e 7f       	andi	r22, 0xFE	; 254
    2210:	6e 5f       	subi	r22, 0xFE	; 254
    2212:	7f 4f       	sbci	r23, 0xFF	; 255
    2214:	8f 4f       	sbci	r24, 0xFF	; 255
    2216:	9f 4f       	sbci	r25, 0xFF	; 255
    2218:	af 4f       	sbci	r26, 0xFF	; 255
    221a:	b1 e0       	ldi	r27, 0x01	; 1
    221c:	3e d0       	rcall	.+124    	; 0x229a <__ultoa_invert+0x9c>
    221e:	b4 e0       	ldi	r27, 0x04	; 4
    2220:	3c d0       	rcall	.+120    	; 0x229a <__ultoa_invert+0x9c>
    2222:	67 0f       	add	r22, r23
    2224:	78 1f       	adc	r23, r24
    2226:	89 1f       	adc	r24, r25
    2228:	9a 1f       	adc	r25, r26
    222a:	a1 1d       	adc	r26, r1
    222c:	68 0f       	add	r22, r24
    222e:	79 1f       	adc	r23, r25
    2230:	8a 1f       	adc	r24, r26
    2232:	91 1d       	adc	r25, r1
    2234:	a1 1d       	adc	r26, r1
    2236:	6a 0f       	add	r22, r26
    2238:	71 1d       	adc	r23, r1
    223a:	81 1d       	adc	r24, r1
    223c:	91 1d       	adc	r25, r1
    223e:	a1 1d       	adc	r26, r1
    2240:	20 d0       	rcall	.+64     	; 0x2282 <__ultoa_invert+0x84>
    2242:	09 f4       	brne	.+2      	; 0x2246 <__ultoa_invert+0x48>
    2244:	68 94       	set
    2246:	3f 91       	pop	r19
    2248:	2a e0       	ldi	r18, 0x0A	; 10
    224a:	26 9f       	mul	r18, r22
    224c:	11 24       	eor	r1, r1
    224e:	30 19       	sub	r19, r0
    2250:	30 5d       	subi	r19, 0xD0	; 208
    2252:	31 93       	st	Z+, r19
    2254:	de f6       	brtc	.-74     	; 0x220c <__ultoa_invert+0xe>
    2256:	cf 01       	movw	r24, r30
    2258:	08 95       	ret
    225a:	46 2f       	mov	r20, r22
    225c:	47 70       	andi	r20, 0x07	; 7
    225e:	40 5d       	subi	r20, 0xD0	; 208
    2260:	41 93       	st	Z+, r20
    2262:	b3 e0       	ldi	r27, 0x03	; 3
    2264:	0f d0       	rcall	.+30     	; 0x2284 <__ultoa_invert+0x86>
    2266:	c9 f7       	brne	.-14     	; 0x225a <__ultoa_invert+0x5c>
    2268:	f6 cf       	rjmp	.-20     	; 0x2256 <__ultoa_invert+0x58>
    226a:	46 2f       	mov	r20, r22
    226c:	4f 70       	andi	r20, 0x0F	; 15
    226e:	40 5d       	subi	r20, 0xD0	; 208
    2270:	4a 33       	cpi	r20, 0x3A	; 58
    2272:	18 f0       	brcs	.+6      	; 0x227a <__ultoa_invert+0x7c>
    2274:	49 5d       	subi	r20, 0xD9	; 217
    2276:	31 fd       	sbrc	r19, 1
    2278:	40 52       	subi	r20, 0x20	; 32
    227a:	41 93       	st	Z+, r20
    227c:	02 d0       	rcall	.+4      	; 0x2282 <__ultoa_invert+0x84>
    227e:	a9 f7       	brne	.-22     	; 0x226a <__ultoa_invert+0x6c>
    2280:	ea cf       	rjmp	.-44     	; 0x2256 <__ultoa_invert+0x58>
    2282:	b4 e0       	ldi	r27, 0x04	; 4
    2284:	a6 95       	lsr	r26
    2286:	97 95       	ror	r25
    2288:	87 95       	ror	r24
    228a:	77 95       	ror	r23
    228c:	67 95       	ror	r22
    228e:	ba 95       	dec	r27
    2290:	c9 f7       	brne	.-14     	; 0x2284 <__ultoa_invert+0x86>
    2292:	00 97       	sbiw	r24, 0x00	; 0
    2294:	61 05       	cpc	r22, r1
    2296:	71 05       	cpc	r23, r1
    2298:	08 95       	ret
    229a:	9b 01       	movw	r18, r22
    229c:	ac 01       	movw	r20, r24
    229e:	0a 2e       	mov	r0, r26
    22a0:	06 94       	lsr	r0
    22a2:	57 95       	ror	r21
    22a4:	47 95       	ror	r20
    22a6:	37 95       	ror	r19
    22a8:	27 95       	ror	r18
    22aa:	ba 95       	dec	r27
    22ac:	c9 f7       	brne	.-14     	; 0x22a0 <__ultoa_invert+0xa2>
    22ae:	62 0f       	add	r22, r18
    22b0:	73 1f       	adc	r23, r19
    22b2:	84 1f       	adc	r24, r20
    22b4:	95 1f       	adc	r25, r21
    22b6:	a0 1d       	adc	r26, r0
    22b8:	08 95       	ret

000022ba <__prologue_saves__>:
    22ba:	2f 92       	push	r2
    22bc:	3f 92       	push	r3
    22be:	4f 92       	push	r4
    22c0:	5f 92       	push	r5
    22c2:	6f 92       	push	r6
    22c4:	7f 92       	push	r7
    22c6:	8f 92       	push	r8
    22c8:	9f 92       	push	r9
    22ca:	af 92       	push	r10
    22cc:	bf 92       	push	r11
    22ce:	cf 92       	push	r12
    22d0:	df 92       	push	r13
    22d2:	ef 92       	push	r14
    22d4:	ff 92       	push	r15
    22d6:	0f 93       	push	r16
    22d8:	1f 93       	push	r17
    22da:	cf 93       	push	r28
    22dc:	df 93       	push	r29
    22de:	cd b7       	in	r28, 0x3d	; 61
    22e0:	de b7       	in	r29, 0x3e	; 62
    22e2:	ca 1b       	sub	r28, r26
    22e4:	db 0b       	sbc	r29, r27
    22e6:	0f b6       	in	r0, 0x3f	; 63
    22e8:	f8 94       	cli
    22ea:	de bf       	out	0x3e, r29	; 62
    22ec:	0f be       	out	0x3f, r0	; 63
    22ee:	cd bf       	out	0x3d, r28	; 61
    22f0:	09 94       	ijmp

000022f2 <__epilogue_restores__>:
    22f2:	2a 88       	ldd	r2, Y+18	; 0x12
    22f4:	39 88       	ldd	r3, Y+17	; 0x11
    22f6:	48 88       	ldd	r4, Y+16	; 0x10
    22f8:	5f 84       	ldd	r5, Y+15	; 0x0f
    22fa:	6e 84       	ldd	r6, Y+14	; 0x0e
    22fc:	7d 84       	ldd	r7, Y+13	; 0x0d
    22fe:	8c 84       	ldd	r8, Y+12	; 0x0c
    2300:	9b 84       	ldd	r9, Y+11	; 0x0b
    2302:	aa 84       	ldd	r10, Y+10	; 0x0a
    2304:	b9 84       	ldd	r11, Y+9	; 0x09
    2306:	c8 84       	ldd	r12, Y+8	; 0x08
    2308:	df 80       	ldd	r13, Y+7	; 0x07
    230a:	ee 80       	ldd	r14, Y+6	; 0x06
    230c:	fd 80       	ldd	r15, Y+5	; 0x05
    230e:	0c 81       	ldd	r16, Y+4	; 0x04
    2310:	1b 81       	ldd	r17, Y+3	; 0x03
    2312:	aa 81       	ldd	r26, Y+2	; 0x02
    2314:	b9 81       	ldd	r27, Y+1	; 0x01
    2316:	ce 0f       	add	r28, r30
    2318:	d1 1d       	adc	r29, r1
    231a:	0f b6       	in	r0, 0x3f	; 63
    231c:	f8 94       	cli
    231e:	de bf       	out	0x3e, r29	; 62
    2320:	0f be       	out	0x3f, r0	; 63
    2322:	cd bf       	out	0x3d, r28	; 61
    2324:	ed 01       	movw	r28, r26
    2326:	08 95       	ret

00002328 <_exit>:
    2328:	f8 94       	cli

0000232a <__stop_program>:
    232a:	ff cf       	rjmp	.-2      	; 0x232a <__stop_program>
