
NewTetris.elf:     file format elf32-avr

Sections:
Idx Name          Size      VMA       LMA       File off  Algn
  0 .data         00000156  00800100  00000ffa  0000108e  2**0
                  CONTENTS, ALLOC, LOAD, DATA
  1 .text         00000ffa  00000000  00000000  00000094  2**1
                  CONTENTS, ALLOC, LOAD, READONLY, CODE
  2 .bss          000005c4  00800256  00800256  000011e4  2**0
                  ALLOC
  3 .comment      00000030  00000000  00000000  000011e4  2**0
                  CONTENTS, READONLY
  4 .note.gnu.avr.deviceinfo 00000040  00000000  00000000  00001214  2**2
                  CONTENTS, READONLY
  5 .debug_aranges 00000148  00000000  00000000  00001254  2**0
                  CONTENTS, READONLY, DEBUGGING
  6 .debug_info   00002e63  00000000  00000000  0000139c  2**0
                  CONTENTS, READONLY, DEBUGGING
  7 .debug_abbrev 00000ce0  00000000  00000000  000041ff  2**0
                  CONTENTS, READONLY, DEBUGGING
  8 .debug_line   000015ce  00000000  00000000  00004edf  2**0
                  CONTENTS, READONLY, DEBUGGING
  9 .debug_frame  00000334  00000000  00000000  000064b0  2**2
                  CONTENTS, READONLY, DEBUGGING
 10 .debug_str    000007f9  00000000  00000000  000067e4  2**0
                  CONTENTS, READONLY, DEBUGGING
 11 .debug_loc    0000233d  00000000  00000000  00006fdd  2**0
                  CONTENTS, READONLY, DEBUGGING
 12 .debug_ranges 000002a0  00000000  00000000  0000931a  2**0
                  CONTENTS, READONLY, DEBUGGING

Disassembly of section .text:

00000000 <__vectors>:
   0:	0c 94 a4 01 	jmp	0x348	; 0x348 <__ctors_end>
   4:	0c 94 c1 01 	jmp	0x382	; 0x382 <__bad_interrupt>
   8:	0c 94 c1 01 	jmp	0x382	; 0x382 <__bad_interrupt>
   c:	0c 94 c1 01 	jmp	0x382	; 0x382 <__bad_interrupt>
  10:	0c 94 c1 01 	jmp	0x382	; 0x382 <__bad_interrupt>
  14:	0c 94 c1 01 	jmp	0x382	; 0x382 <__bad_interrupt>
  18:	0c 94 c1 01 	jmp	0x382	; 0x382 <__bad_interrupt>
  1c:	0c 94 c1 01 	jmp	0x382	; 0x382 <__bad_interrupt>
  20:	0c 94 c1 01 	jmp	0x382	; 0x382 <__bad_interrupt>
  24:	0c 94 c1 01 	jmp	0x382	; 0x382 <__bad_interrupt>
  28:	0c 94 c1 01 	jmp	0x382	; 0x382 <__bad_interrupt>
  2c:	0c 94 c1 01 	jmp	0x382	; 0x382 <__bad_interrupt>
  30:	0c 94 c1 01 	jmp	0x382	; 0x382 <__bad_interrupt>
  34:	0c 94 c1 01 	jmp	0x382	; 0x382 <__bad_interrupt>
  38:	0c 94 4b 02 	jmp	0x496	; 0x496 <__vector_14>
  3c:	0c 94 c1 01 	jmp	0x382	; 0x382 <__bad_interrupt>
  40:	0c 94 c1 01 	jmp	0x382	; 0x382 <__bad_interrupt>
  44:	0c 94 c1 01 	jmp	0x382	; 0x382 <__bad_interrupt>
  48:	0c 94 1d 02 	jmp	0x43a	; 0x43a <__vector_18>
  4c:	0c 94 c1 01 	jmp	0x382	; 0x382 <__bad_interrupt>
  50:	0c 94 c1 01 	jmp	0x382	; 0x382 <__bad_interrupt>
  54:	0c 94 c1 01 	jmp	0x382	; 0x382 <__bad_interrupt>
  58:	0c 94 c1 01 	jmp	0x382	; 0x382 <__bad_interrupt>
  5c:	0c 94 c1 01 	jmp	0x382	; 0x382 <__bad_interrupt>
  60:	0c 94 c1 01 	jmp	0x382	; 0x382 <__bad_interrupt>
  64:	0c 94 c1 01 	jmp	0x382	; 0x382 <__bad_interrupt>

00000068 <__trampolines_end>:
  68:	00 00       	nop
  6a:	01 00       	.word	0x0001	; ????
  6c:	02 00       	.word	0x0002	; ????
  6e:	03 00       	.word	0x0003	; ????
  70:	04 00       	.word	0x0004	; ????
  72:	05 00       	.word	0x0005	; ????
  74:	06 00       	.word	0x0006	; ????
  76:	07 00       	.word	0x0007	; ????
  78:	08 00       	.word	0x0008	; ????
  7a:	09 00       	.word	0x0009	; ????
  7c:	0a 00       	.word	0x000a	; ????
  7e:	0b 00       	.word	0x000b	; ????
  80:	17 00       	.word	0x0017	; ????
  82:	16 00       	.word	0x0016	; ????
  84:	15 00       	.word	0x0015	; ????
  86:	14 00       	.word	0x0014	; ????
  88:	13 00       	.word	0x0013	; ????
  8a:	12 00       	.word	0x0012	; ????
  8c:	11 00       	.word	0x0011	; ????
  8e:	10 00       	.word	0x0010	; ????
  90:	0f 00       	.word	0x000f	; ????
  92:	0e 00       	.word	0x000e	; ????
  94:	0d 00       	.word	0x000d	; ????
  96:	0c 00       	.word	0x000c	; ????
  98:	18 00       	.word	0x0018	; ????
  9a:	19 00       	.word	0x0019	; ????
  9c:	1a 00       	.word	0x001a	; ????
  9e:	1b 00       	.word	0x001b	; ????
  a0:	1c 00       	.word	0x001c	; ????
  a2:	1d 00       	.word	0x001d	; ????
  a4:	1e 00       	.word	0x001e	; ????
  a6:	1f 00       	.word	0x001f	; ????
  a8:	20 00       	.word	0x0020	; ????
  aa:	21 00       	.word	0x0021	; ????
  ac:	22 00       	.word	0x0022	; ????
  ae:	23 00       	.word	0x0023	; ????
  b0:	2f 00       	.word	0x002f	; ????
  b2:	2e 00       	.word	0x002e	; ????
  b4:	2d 00       	.word	0x002d	; ????
  b6:	2c 00       	.word	0x002c	; ????
  b8:	2b 00       	.word	0x002b	; ????
  ba:	2a 00       	.word	0x002a	; ????
  bc:	29 00       	.word	0x0029	; ????
  be:	28 00       	.word	0x0028	; ????
  c0:	27 00       	.word	0x0027	; ????
  c2:	26 00       	.word	0x0026	; ????
  c4:	25 00       	.word	0x0025	; ????
  c6:	24 00       	.word	0x0024	; ????
  c8:	30 00       	.word	0x0030	; ????
  ca:	31 00       	.word	0x0031	; ????
  cc:	32 00       	.word	0x0032	; ????
  ce:	33 00       	.word	0x0033	; ????
  d0:	34 00       	.word	0x0034	; ????
  d2:	35 00       	.word	0x0035	; ????
  d4:	36 00       	.word	0x0036	; ????
  d6:	37 00       	.word	0x0037	; ????
  d8:	38 00       	.word	0x0038	; ????
  da:	39 00       	.word	0x0039	; ????
  dc:	3a 00       	.word	0x003a	; ????
  de:	3b 00       	.word	0x003b	; ????
  e0:	47 00       	.word	0x0047	; ????
  e2:	46 00       	.word	0x0046	; ????
  e4:	45 00       	.word	0x0045	; ????
  e6:	44 00       	.word	0x0044	; ????
  e8:	43 00       	.word	0x0043	; ????
  ea:	42 00       	.word	0x0042	; ????
  ec:	41 00       	.word	0x0041	; ????
  ee:	40 00       	.word	0x0040	; ????
  f0:	3f 00       	.word	0x003f	; ????
  f2:	3e 00       	.word	0x003e	; ????
  f4:	3d 00       	.word	0x003d	; ????
  f6:	3c 00       	.word	0x003c	; ????
  f8:	48 00       	.word	0x0048	; ????
  fa:	49 00       	.word	0x0049	; ????
  fc:	4a 00       	.word	0x004a	; ????
  fe:	4b 00       	.word	0x004b	; ????
 100:	4c 00       	.word	0x004c	; ????
 102:	4d 00       	.word	0x004d	; ????
 104:	4e 00       	.word	0x004e	; ????
 106:	4f 00       	.word	0x004f	; ????
 108:	50 00       	.word	0x0050	; ????
 10a:	51 00       	.word	0x0051	; ????
 10c:	52 00       	.word	0x0052	; ????
 10e:	53 00       	.word	0x0053	; ????
 110:	5f 00       	.word	0x005f	; ????
 112:	5e 00       	.word	0x005e	; ????
 114:	5d 00       	.word	0x005d	; ????
 116:	5c 00       	.word	0x005c	; ????
 118:	5b 00       	.word	0x005b	; ????
 11a:	5a 00       	.word	0x005a	; ????
 11c:	59 00       	.word	0x0059	; ????
 11e:	58 00       	.word	0x0058	; ????
 120:	57 00       	.word	0x0057	; ????
 122:	56 00       	.word	0x0056	; ????
 124:	55 00       	.word	0x0055	; ????
 126:	54 00       	.word	0x0054	; ????
 128:	60 00       	.word	0x0060	; ????
 12a:	61 00       	.word	0x0061	; ????
 12c:	62 00       	.word	0x0062	; ????
 12e:	63 00       	.word	0x0063	; ????
 130:	64 00       	.word	0x0064	; ????
 132:	65 00       	.word	0x0065	; ????
 134:	66 00       	.word	0x0066	; ????
 136:	67 00       	.word	0x0067	; ????
 138:	68 00       	.word	0x0068	; ????
 13a:	69 00       	.word	0x0069	; ????
 13c:	6a 00       	.word	0x006a	; ????
 13e:	6b 00       	.word	0x006b	; ????
 140:	77 00       	.word	0x0077	; ????
 142:	76 00       	.word	0x0076	; ????
 144:	75 00       	.word	0x0075	; ????
 146:	74 00       	.word	0x0074	; ????
 148:	73 00       	.word	0x0073	; ????
 14a:	72 00       	.word	0x0072	; ????
 14c:	71 00       	.word	0x0071	; ????
 14e:	70 00       	.word	0x0070	; ????
 150:	6f 00       	.word	0x006f	; ????
 152:	6e 00       	.word	0x006e	; ????
 154:	6d 00       	.word	0x006d	; ????
 156:	6c 00       	.word	0x006c	; ????
 158:	78 00       	.word	0x0078	; ????
 15a:	79 00       	.word	0x0079	; ????
 15c:	7a 00       	.word	0x007a	; ????
 15e:	7b 00       	.word	0x007b	; ????
 160:	7c 00       	.word	0x007c	; ????
 162:	7d 00       	.word	0x007d	; ????
 164:	7e 00       	.word	0x007e	; ????
 166:	7f 00       	.word	0x007f	; ????
 168:	80 00       	.word	0x0080	; ????
 16a:	81 00       	.word	0x0081	; ????
 16c:	82 00       	.word	0x0082	; ????
 16e:	83 00       	.word	0x0083	; ????
 170:	8f 00       	.word	0x008f	; ????
 172:	8e 00       	.word	0x008e	; ????
 174:	8d 00       	.word	0x008d	; ????
 176:	8c 00       	.word	0x008c	; ????
 178:	8b 00       	.word	0x008b	; ????
 17a:	8a 00       	.word	0x008a	; ????
 17c:	89 00       	.word	0x0089	; ????
 17e:	88 00       	.word	0x0088	; ????
 180:	87 00       	.word	0x0087	; ????
 182:	86 00       	.word	0x0086	; ????
 184:	85 00       	.word	0x0085	; ????
 186:	84 00       	.word	0x0084	; ????
 188:	90 00       	.word	0x0090	; ????
 18a:	91 00       	.word	0x0091	; ????
 18c:	92 00       	.word	0x0092	; ????
 18e:	93 00       	.word	0x0093	; ????
 190:	94 00       	.word	0x0094	; ????
 192:	95 00       	.word	0x0095	; ????
 194:	96 00       	.word	0x0096	; ????
 196:	97 00       	.word	0x0097	; ????
 198:	98 00       	.word	0x0098	; ????
 19a:	99 00       	.word	0x0099	; ????
 19c:	9a 00       	.word	0x009a	; ????
 19e:	9b 00       	.word	0x009b	; ????
 1a0:	a7 00       	.word	0x00a7	; ????
 1a2:	a6 00       	.word	0x00a6	; ????
 1a4:	a5 00       	.word	0x00a5	; ????
 1a6:	a4 00       	.word	0x00a4	; ????
 1a8:	a3 00       	.word	0x00a3	; ????
 1aa:	a2 00       	.word	0x00a2	; ????
 1ac:	a1 00       	.word	0x00a1	; ????
 1ae:	a0 00       	.word	0x00a0	; ????
 1b0:	9f 00       	.word	0x009f	; ????
 1b2:	9e 00       	.word	0x009e	; ????
 1b4:	9d 00       	.word	0x009d	; ????
 1b6:	9c 00       	.word	0x009c	; ????
 1b8:	a8 00       	.word	0x00a8	; ????
 1ba:	a9 00       	.word	0x00a9	; ????
 1bc:	aa 00       	.word	0x00aa	; ????
 1be:	ab 00       	.word	0x00ab	; ????
 1c0:	ac 00       	.word	0x00ac	; ????
 1c2:	ad 00       	.word	0x00ad	; ????
 1c4:	ae 00       	.word	0x00ae	; ????
 1c6:	af 00       	.word	0x00af	; ????
 1c8:	b0 00       	.word	0x00b0	; ????
 1ca:	b1 00       	.word	0x00b1	; ????
 1cc:	b2 00       	.word	0x00b2	; ????
 1ce:	b3 00       	.word	0x00b3	; ????
 1d0:	bf 00       	.word	0x00bf	; ????
 1d2:	be 00       	.word	0x00be	; ????
 1d4:	bd 00       	.word	0x00bd	; ????
 1d6:	bc 00       	.word	0x00bc	; ????
 1d8:	bb 00       	.word	0x00bb	; ????
 1da:	ba 00       	.word	0x00ba	; ????
 1dc:	b9 00       	.word	0x00b9	; ????
 1de:	b8 00       	.word	0x00b8	; ????
 1e0:	b7 00       	.word	0x00b7	; ????
 1e2:	b6 00       	.word	0x00b6	; ????
 1e4:	b5 00       	.word	0x00b5	; ????
 1e6:	b4 00       	.word	0x00b4	; ????
 1e8:	c0 00       	.word	0x00c0	; ????
 1ea:	c1 00       	.word	0x00c1	; ????
 1ec:	c2 00       	.word	0x00c2	; ????
 1ee:	c3 00       	.word	0x00c3	; ????
 1f0:	c4 00       	.word	0x00c4	; ????
 1f2:	c5 00       	.word	0x00c5	; ????
 1f4:	c6 00       	.word	0x00c6	; ????
 1f6:	c7 00       	.word	0x00c7	; ????
 1f8:	c8 00       	.word	0x00c8	; ????
 1fa:	c9 00       	.word	0x00c9	; ????
 1fc:	ca 00       	.word	0x00ca	; ????
 1fe:	cb 00       	.word	0x00cb	; ????
 200:	d7 00       	.word	0x00d7	; ????
 202:	d6 00       	.word	0x00d6	; ????
 204:	d5 00       	.word	0x00d5	; ????
 206:	d4 00       	.word	0x00d4	; ????
 208:	d3 00       	.word	0x00d3	; ????
 20a:	d2 00       	.word	0x00d2	; ????
 20c:	d1 00       	.word	0x00d1	; ????
 20e:	d0 00       	.word	0x00d0	; ????
 210:	cf 00       	.word	0x00cf	; ????
 212:	ce 00       	.word	0x00ce	; ????
 214:	cd 00       	.word	0x00cd	; ????
 216:	cc 00       	.word	0x00cc	; ????
 218:	d8 00       	.word	0x00d8	; ????
 21a:	d9 00       	.word	0x00d9	; ????
 21c:	da 00       	.word	0x00da	; ????
 21e:	db 00       	.word	0x00db	; ????
 220:	dc 00       	.word	0x00dc	; ????
 222:	dd 00       	.word	0x00dd	; ????
 224:	de 00       	.word	0x00de	; ????
 226:	df 00       	.word	0x00df	; ????
 228:	e0 00       	.word	0x00e0	; ????
 22a:	e1 00       	.word	0x00e1	; ????
 22c:	e2 00       	.word	0x00e2	; ????
 22e:	e3 00       	.word	0x00e3	; ????
 230:	ef 00       	.word	0x00ef	; ????
 232:	ee 00       	.word	0x00ee	; ????
 234:	ed 00       	.word	0x00ed	; ????
 236:	ec 00       	.word	0x00ec	; ????
 238:	eb 00       	.word	0x00eb	; ????
 23a:	ea 00       	.word	0x00ea	; ????
 23c:	e9 00       	.word	0x00e9	; ????
 23e:	e8 00       	.word	0x00e8	; ????
 240:	e7 00       	.word	0x00e7	; ????
 242:	e6 00       	.word	0x00e6	; ????
 244:	e5 00       	.word	0x00e5	; ????
 246:	e4 00       	.word	0x00e4	; ????
 248:	f0 00       	.word	0x00f0	; ????
 24a:	f1 00       	.word	0x00f1	; ????
 24c:	f2 00       	.word	0x00f2	; ????
 24e:	f3 00       	.word	0x00f3	; ????
 250:	f4 00       	.word	0x00f4	; ????
 252:	f5 00       	.word	0x00f5	; ????
 254:	f6 00       	.word	0x00f6	; ????
 256:	f7 00       	.word	0x00f7	; ????
 258:	f8 00       	.word	0x00f8	; ????
 25a:	f9 00       	.word	0x00f9	; ????
 25c:	fa 00       	.word	0x00fa	; ????
 25e:	fb 00       	.word	0x00fb	; ????
 260:	07 01       	movw	r0, r14
 262:	06 01       	movw	r0, r12
 264:	05 01       	movw	r0, r10
 266:	04 01       	movw	r0, r8
 268:	03 01       	movw	r0, r6
 26a:	02 01       	movw	r0, r4
 26c:	01 01       	movw	r0, r2
 26e:	00 01       	movw	r0, r0
 270:	ff 00       	.word	0x00ff	; ????
 272:	fe 00       	.word	0x00fe	; ????
 274:	fd 00       	.word	0x00fd	; ????
 276:	fc 00       	.word	0x00fc	; ????
 278:	08 01       	movw	r0, r16
 27a:	09 01       	movw	r0, r18
 27c:	0a 01       	movw	r0, r20
 27e:	0b 01       	movw	r0, r22
 280:	0c 01       	movw	r0, r24
 282:	0d 01       	movw	r0, r26
 284:	0e 01       	movw	r0, r28
 286:	0f 01       	movw	r0, r30
 288:	10 01       	movw	r2, r0
 28a:	11 01       	movw	r2, r2
 28c:	12 01       	movw	r2, r4
 28e:	13 01       	movw	r2, r6
 290:	1f 01       	movw	r2, r30
 292:	1e 01       	movw	r2, r28
 294:	1d 01       	movw	r2, r26
 296:	1c 01       	movw	r2, r24
 298:	1b 01       	movw	r2, r22
 29a:	1a 01       	movw	r2, r20
 29c:	19 01       	movw	r2, r18
 29e:	18 01       	movw	r2, r16
 2a0:	17 01       	movw	r2, r14
 2a2:	16 01       	movw	r2, r12
 2a4:	15 01       	movw	r2, r10
 2a6:	14 01       	movw	r2, r8
 2a8:	20 01       	movw	r4, r0
 2aa:	21 01       	movw	r4, r2
 2ac:	22 01       	movw	r4, r4
 2ae:	23 01       	movw	r4, r6
 2b0:	24 01       	movw	r4, r8
 2b2:	25 01       	movw	r4, r10
 2b4:	26 01       	movw	r4, r12
 2b6:	27 01       	movw	r4, r14
 2b8:	28 01       	movw	r4, r16
 2ba:	29 01       	movw	r4, r18
 2bc:	2a 01       	movw	r4, r20
 2be:	2b 01       	movw	r4, r22

000002c0 <randomcolor>:
 2c0:	04 00 00 00 07 00 03 00 06 00 02 00 05 00 09 00     ................
 2d0:	08 00 01 00 08 00 09 00 02 00 04 00 00 00 01 00     ................
 2e0:	06 00 07 00 05 00 03 00 08 00 01 00 03 00 02 00     ................
 2f0:	05 00 07 00 04 00 00 00 09 00 06 00 00 00 05 00     ................
 300:	09 00 08 00 02 00 01 00 07 00 06 00 03 00 04 00     ................

00000310 <randombrick>:
 310:	04 00 00 00 03 00 05 00 01 00 06 00 03 00 01 00     ................
 320:	04 00 03 00 02 00 00 00 06 00 05 00 00 00 05 00     ................
 330:	02 00 06 00 01 00 03 00 04 00 00 00 06 00 01 00     ................
 340:	03 00 05 00 02 00 04 00                             ........

00000348 <__ctors_end>:
 348:	11 24       	eor	r1, r1
 34a:	1f be       	out	0x3f, r1	; 63
 34c:	cf ef       	ldi	r28, 0xFF	; 255
 34e:	d8 e0       	ldi	r29, 0x08	; 8
 350:	de bf       	out	0x3e, r29	; 62
 352:	cd bf       	out	0x3d, r28	; 61

00000354 <__do_copy_data>:
 354:	12 e0       	ldi	r17, 0x02	; 2
 356:	a0 e0       	ldi	r26, 0x00	; 0
 358:	b1 e0       	ldi	r27, 0x01	; 1
 35a:	ea ef       	ldi	r30, 0xFA	; 250
 35c:	ff e0       	ldi	r31, 0x0F	; 15
 35e:	02 c0       	rjmp	.+4      	; 0x364 <__do_copy_data+0x10>
 360:	05 90       	lpm	r0, Z+
 362:	0d 92       	st	X+, r0
 364:	a6 35       	cpi	r26, 0x56	; 86
 366:	b1 07       	cpc	r27, r17
 368:	d9 f7       	brne	.-10     	; 0x360 <__do_copy_data+0xc>

0000036a <__do_clear_bss>:
 36a:	28 e0       	ldi	r18, 0x08	; 8
 36c:	a6 e5       	ldi	r26, 0x56	; 86
 36e:	b2 e0       	ldi	r27, 0x02	; 2
 370:	01 c0       	rjmp	.+2      	; 0x374 <.do_clear_bss_start>

00000372 <.do_clear_bss_loop>:
 372:	1d 92       	st	X+, r1

00000374 <.do_clear_bss_start>:
 374:	aa 31       	cpi	r26, 0x1A	; 26
 376:	b2 07       	cpc	r27, r18
 378:	e1 f7       	brne	.-8      	; 0x372 <.do_clear_bss_loop>
 37a:	0e 94 b0 02 	call	0x560	; 0x560 <main>
 37e:	0c 94 fb 07 	jmp	0xff6	; 0xff6 <_exit>

00000382 <__bad_interrupt>:
 382:	0c 94 00 00 	jmp	0	; 0x0 <__vectors>

00000386 <ws2812_setleds>:
 386:	fc 01       	movw	r30, r24
 388:	9b 01       	movw	r18, r22
 38a:	22 0f       	add	r18, r18
 38c:	33 1f       	adc	r19, r19
 38e:	62 0f       	add	r22, r18
 390:	73 1f       	adc	r23, r19
 392:	8a b1       	in	r24, 0x0a	; 10
 394:	80 62       	ori	r24, 0x20	; 32
 396:	8a b9       	out	0x0a, r24	; 10
 398:	ab b1       	in	r26, 0x0b	; 11
 39a:	af 7d       	andi	r26, 0xDF	; 223
 39c:	5b b1       	in	r21, 0x0b	; 11
 39e:	50 62       	ori	r21, 0x20	; 32
 3a0:	bf b7       	in	r27, 0x3f	; 63
 3a2:	f8 94       	cli
 3a4:	10 c0       	rjmp	.+32     	; 0x3c6 <loop51+0x16>
 3a6:	9f 01       	movw	r18, r30
 3a8:	2f 5f       	subi	r18, 0xFF	; 255
 3aa:	3f 4f       	sbci	r19, 0xFF	; 255
 3ac:	40 81       	ld	r20, Z
 3ae:	68 e0       	ldi	r22, 0x08	; 8

000003b0 <loop51>:
 3b0:	5b b9       	out	0x0b, r21	; 11
 3b2:	47 ff       	sbrs	r20, 7
 3b4:	ab b9       	out	0x0b, r26	; 11
 3b6:	44 0f       	add	r20, r20
 3b8:	00 00       	nop
 3ba:	00 c0       	rjmp	.+0      	; 0x3bc <loop51+0xc>
 3bc:	ab b9       	out	0x0b, r26	; 11
 3be:	6a 95       	dec	r22
 3c0:	b9 f7       	brne	.-18     	; 0x3b0 <loop51>
 3c2:	bc 01       	movw	r22, r24
 3c4:	f9 01       	movw	r30, r18
 3c6:	cb 01       	movw	r24, r22
 3c8:	01 97       	sbiw	r24, 0x01	; 1
 3ca:	67 2b       	or	r22, r23
 3cc:	61 f7       	brne	.-40     	; 0x3a6 <ws2812_setleds+0x20>
 3ce:	bf bf       	out	0x3f, r27	; 63
	#else
		//round up by default
		__ticks_dc = (uint32_t)(ceil(fabs(__tmp)));
	#endif

	__builtin_avr_delay_cycles(__ticks_dc);
 3d0:	85 e8       	ldi	r24, 0x85	; 133
 3d2:	8a 95       	dec	r24
 3d4:	f1 f7       	brne	.-4      	; 0x3d2 <loop51+0x22>
 3d6:	00 00       	nop
 3d8:	08 95       	ret

000003da <init>:
	{
		while((UCSR0A & (1<<UDRE0)) == 0);
		UDR0 = buffer[i];
		i++;
	}
}
 3da:	84 b1       	in	r24, 0x04	; 4
 3dc:	80 62       	ori	r24, 0x20	; 32
 3de:	84 b9       	out	0x04, r24	; 4
 3e0:	0e 94 9f 07 	call	0xf3e	; 0xf3e <clearTable>
 3e4:	2f e7       	ldi	r18, 0x7F	; 127
 3e6:	88 e3       	ldi	r24, 0x38	; 56
 3e8:	91 e0       	ldi	r25, 0x01	; 1
 3ea:	21 50       	subi	r18, 0x01	; 1
 3ec:	80 40       	sbci	r24, 0x00	; 0
 3ee:	90 40       	sbci	r25, 0x00	; 0
 3f0:	e1 f7       	brne	.-8      	; 0x3ea <init+0x10>
 3f2:	00 c0       	rjmp	.+0      	; 0x3f4 <init+0x1a>
 3f4:	00 00       	nop
 3f6:	84 b1       	in	r24, 0x04	; 4
 3f8:	82 60       	ori	r24, 0x02	; 2
 3fa:	84 b9       	out	0x04, r24	; 4
 3fc:	82 e0       	ldi	r24, 0x02	; 2
 3fe:	85 b9       	out	0x05, r24	; 5
 400:	97 e2       	ldi	r25, 0x27	; 39
 402:	97 bd       	out	0x27, r25	; 39
 404:	84 bd       	out	0x24, r24	; 36
 406:	95 ec       	ldi	r25, 0xC5	; 197
 408:	95 bd       	out	0x25, r25	; 37
 40a:	ee e6       	ldi	r30, 0x6E	; 110
 40c:	f0 e0       	ldi	r31, 0x00	; 0
 40e:	90 81       	ld	r25, Z
 410:	92 60       	ori	r25, 0x02	; 2
 412:	90 83       	st	Z, r25
 414:	10 92 c5 00 	sts	0x00C5, r1	; 0x8000c5 <__TEXT_REGION_LENGTH__+0x7f80c5>
 418:	97 e6       	ldi	r25, 0x67	; 103
 41a:	90 93 c4 00 	sts	0x00C4, r25	; 0x8000c4 <__TEXT_REGION_LENGTH__+0x7f80c4>
 41e:	80 93 c0 00 	sts	0x00C0, r24	; 0x8000c0 <__TEXT_REGION_LENGTH__+0x7f80c0>
 422:	e1 ec       	ldi	r30, 0xC1	; 193
 424:	f0 e0       	ldi	r31, 0x00	; 0
 426:	80 81       	ld	r24, Z
 428:	88 69       	ori	r24, 0x98	; 152
 42a:	80 83       	st	Z, r24
 42c:	e2 ec       	ldi	r30, 0xC2	; 194
 42e:	f0 e0       	ldi	r31, 0x00	; 0
 430:	80 81       	ld	r24, Z
 432:	86 60       	ori	r24, 0x06	; 6
 434:	80 83       	st	Z, r24
 436:	78 94       	sei
 438:	08 95       	ret

0000043a <__vector_18>:
 43a:	1f 92       	push	r1
 43c:	0f 92       	push	r0
 43e:	0f b6       	in	r0, 0x3f	; 63
 440:	0f 92       	push	r0
 442:	11 24       	eor	r1, r1
 444:	8f 93       	push	r24
 446:	af 93       	push	r26
 448:	bf 93       	push	r27
 44a:	ef 93       	push	r30
 44c:	ff 93       	push	r31
 44e:	80 91 c0 00 	lds	r24, 0x00C0	; 0x8000c0 <__TEXT_REGION_LENGTH__+0x7f80c0>
 452:	e6 e5       	ldi	r30, 0x56	; 86
 454:	f2 e0       	ldi	r31, 0x02	; 2
 456:	81 83       	std	Z+1, r24	; 0x01
 458:	81 81       	ldd	r24, Z+1	; 0x01
 45a:	88 71       	andi	r24, 0x18	; 24
 45c:	29 f0       	breq	.+10     	; 0x468 <__vector_18+0x2e>
 45e:	e8 e5       	ldi	r30, 0x58	; 88
 460:	f2 e0       	ldi	r31, 0x02	; 2
 462:	80 81       	ld	r24, Z
 464:	82 60       	ori	r24, 0x02	; 2
 466:	80 83       	st	Z, r24
 468:	80 91 c6 00 	lds	r24, 0x00C6	; 0x8000c6 <__TEXT_REGION_LENGTH__+0x7f80c6>
 46c:	e6 e5       	ldi	r30, 0x56	; 86
 46e:	f2 e0       	ldi	r31, 0x02	; 2
 470:	80 83       	st	Z, r24
 472:	a8 e5       	ldi	r26, 0x58	; 88
 474:	b2 e0       	ldi	r27, 0x02	; 2
 476:	8c 91       	ld	r24, X
 478:	81 60       	ori	r24, 0x01	; 1
 47a:	8c 93       	st	X, r24
 47c:	80 81       	ld	r24, Z
 47e:	80 93 6f 02 	sts	0x026F, r24	; 0x80026f <button>
 482:	ff 91       	pop	r31
 484:	ef 91       	pop	r30
 486:	bf 91       	pop	r27
 488:	af 91       	pop	r26
 48a:	8f 91       	pop	r24
 48c:	0f 90       	pop	r0
 48e:	0f be       	out	0x3f, r0	; 63
 490:	0f 90       	pop	r0
 492:	1f 90       	pop	r1
 494:	18 95       	reti

00000496 <__vector_14>:

ISR(TIMER0_COMPA_vect) {	// Timer 0
 496:	1f 92       	push	r1
 498:	0f 92       	push	r0
 49a:	0f b6       	in	r0, 0x3f	; 63
 49c:	0f 92       	push	r0
 49e:	11 24       	eor	r1, r1
 4a0:	2f 93       	push	r18
 4a2:	3f 93       	push	r19
 4a4:	4f 93       	push	r20
 4a6:	5f 93       	push	r21
 4a8:	6f 93       	push	r22
 4aa:	7f 93       	push	r23
 4ac:	8f 93       	push	r24
 4ae:	9f 93       	push	r25
 4b0:	af 93       	push	r26
 4b2:	bf 93       	push	r27
 4b4:	ef 93       	push	r30
 4b6:	ff 93       	push	r31
	count_1000++;
 4b8:	80 91 59 02 	lds	r24, 0x0259	; 0x800259 <count_1000>
 4bc:	90 91 5a 02 	lds	r25, 0x025A	; 0x80025a <count_1000+0x1>
 4c0:	01 96       	adiw	r24, 0x01	; 1
 4c2:	90 93 5a 02 	sts	0x025A, r25	; 0x80025a <count_1000+0x1>
 4c6:	80 93 59 02 	sts	0x0259, r24	; 0x800259 <count_1000>
	countspeed++;
 4ca:	80 91 70 02 	lds	r24, 0x0270	; 0x800270 <countspeed>
 4ce:	90 91 71 02 	lds	r25, 0x0271	; 0x800271 <countspeed+0x1>
 4d2:	01 96       	adiw	r24, 0x01	; 1
 4d4:	90 93 71 02 	sts	0x0271, r25	; 0x800271 <countspeed+0x1>
 4d8:	80 93 70 02 	sts	0x0270, r24	; 0x800270 <countspeed>
	
	if (count_1000 == 100)	// When Timer 0 counts to 100, time = 0.005 * 100 = 0.5s = 500ms
 4dc:	80 91 59 02 	lds	r24, 0x0259	; 0x800259 <count_1000>
 4e0:	90 91 5a 02 	lds	r25, 0x025A	; 0x80025a <count_1000+0x1>
 4e4:	84 36       	cpi	r24, 0x64	; 100
 4e6:	91 05       	cpc	r25, r1
 4e8:	c1 f4       	brne	.+48     	; 0x51a <__vector_14+0x84>
	{
		count_1000 = 0;		// Resets Timer
 4ea:	10 92 5a 02 	sts	0x025A, r1	; 0x80025a <count_1000+0x1>
 4ee:	10 92 59 02 	sts	0x0259, r1	; 0x800259 <count_1000>

		if (flag_LED == 1)	// If LED ON
 4f2:	80 91 00 01 	lds	r24, 0x0100	; 0x800100 <__DATA_REGION_ORIGIN__>
 4f6:	90 91 01 01 	lds	r25, 0x0101	; 0x800101 <__DATA_REGION_ORIGIN__+0x1>
 4fa:	01 97       	sbiw	r24, 0x01	; 1
 4fc:	31 f4       	brne	.+12     	; 0x50a <__vector_14+0x74>
		{
			PORTB = 0b00000000;
 4fe:	15 b8       	out	0x05, r1	; 5
			flag_LED = 0;	// Turns LED OFF
 500:	10 92 01 01 	sts	0x0101, r1	; 0x800101 <__DATA_REGION_ORIGIN__+0x1>
 504:	10 92 00 01 	sts	0x0100, r1	; 0x800100 <__DATA_REGION_ORIGIN__>
 508:	08 c0       	rjmp	.+16     	; 0x51a <__vector_14+0x84>
		}
		else				// If LED OFF
		{
			PORTB = 0b00000010;
 50a:	82 e0       	ldi	r24, 0x02	; 2
 50c:	85 b9       	out	0x05, r24	; 5
			flag_LED = 1;	// Turns LED ON
 50e:	81 e0       	ldi	r24, 0x01	; 1
 510:	90 e0       	ldi	r25, 0x00	; 0
 512:	90 93 01 01 	sts	0x0101, r25	; 0x800101 <__DATA_REGION_ORIGIN__+0x1>
 516:	80 93 00 01 	sts	0x0100, r24	; 0x800100 <__DATA_REGION_ORIGIN__>
		}
	}
	
	if (countspeed == falltime) // 200 * 0.005 * 200 = 1s
 51a:	20 91 70 02 	lds	r18, 0x0270	; 0x800270 <countspeed>
 51e:	30 91 71 02 	lds	r19, 0x0271	; 0x800271 <countspeed+0x1>
 522:	80 91 53 02 	lds	r24, 0x0253	; 0x800253 <falltime>
 526:	90 91 54 02 	lds	r25, 0x0254	; 0x800254 <falltime+0x1>
 52a:	28 17       	cp	r18, r24
 52c:	39 07       	cpc	r19, r25
 52e:	39 f4       	brne	.+14     	; 0x53e <__vector_14+0xa8>
	{
		shiftActiveBrick('d');
 530:	84 e6       	ldi	r24, 0x64	; 100
 532:	0e 94 63 06 	call	0xcc6	; 0xcc6 <shiftActiveBrick>
		countspeed = 0;						// Reset Timer
 536:	10 92 71 02 	sts	0x0271, r1	; 0x800271 <countspeed+0x1>
 53a:	10 92 70 02 	sts	0x0270, r1	; 0x800270 <countspeed>
	}
	
}
 53e:	ff 91       	pop	r31
 540:	ef 91       	pop	r30
 542:	bf 91       	pop	r27
 544:	af 91       	pop	r26
 546:	9f 91       	pop	r25
 548:	8f 91       	pop	r24
 54a:	7f 91       	pop	r23
 54c:	6f 91       	pop	r22
 54e:	5f 91       	pop	r21
 550:	4f 91       	pop	r20
 552:	3f 91       	pop	r19
 554:	2f 91       	pop	r18
 556:	0f 90       	pop	r0
 558:	0f be       	out	0x3f, r0	; 63
 55a:	0f 90       	pop	r0
 55c:	1f 90       	pop	r1
 55e:	18 95       	reti

00000560 <main>:

int main(void)
{
	init();
 560:	0e 94 ed 01 	call	0x3da	; 0x3da <init>
	
	while(1)
	{
		init();
 564:	0e 94 ed 01 	call	0x3da	; 0x3da <init>
	
		// BLUETOOTH
		//Awaits for a button to be pressed
		while (button != 'a' && button != 's' && button != 'd' && button != 'j'  && button != 'k'  && button != 'l' );
 568:	80 91 6f 02 	lds	r24, 0x026F	; 0x80026f <button>
 56c:	81 36       	cpi	r24, 0x61	; 97
 56e:	a1 f0       	breq	.+40     	; 0x598 <main+0x38>
 570:	80 91 6f 02 	lds	r24, 0x026F	; 0x80026f <button>
 574:	83 37       	cpi	r24, 0x73	; 115
 576:	81 f0       	breq	.+32     	; 0x598 <main+0x38>
 578:	80 91 6f 02 	lds	r24, 0x026F	; 0x80026f <button>
 57c:	84 36       	cpi	r24, 0x64	; 100
 57e:	61 f0       	breq	.+24     	; 0x598 <main+0x38>
 580:	80 91 6f 02 	lds	r24, 0x026F	; 0x80026f <button>
 584:	8a 36       	cpi	r24, 0x6A	; 106
 586:	41 f0       	breq	.+16     	; 0x598 <main+0x38>
 588:	80 91 6f 02 	lds	r24, 0x026F	; 0x80026f <button>
 58c:	8b 36       	cpi	r24, 0x6B	; 107
 58e:	21 f0       	breq	.+8      	; 0x598 <main+0x38>
 590:	80 91 6f 02 	lds	r24, 0x026F	; 0x80026f <button>
 594:	8c 36       	cpi	r24, 0x6C	; 108
 596:	41 f7       	brne	.-48     	; 0x568 <main+0x8>
		//while (button != ('a' || 's' || 'd' || 'j' || 'k' || 'l'));
		
		clearTable();
 598:	0e 94 9f 07 	call	0xf3e	; 0xf3e <clearTable>
		button = '0';
 59c:	80 e3       	ldi	r24, 0x30	; 48
 59e:	80 93 6f 02 	sts	0x026F, r24	; 0x80026f <button>
		newActiveBrick();
 5a2:	0e 94 b6 04 	call	0x96c	; 0x96c <newActiveBrick>
		while(1)
		{
			// BLUETOOTH
			//shiftActiveBrick('d');
			//fallActiveBrick();
			switch (button)
 5a6:	80 91 6f 02 	lds	r24, 0x026F	; 0x80026f <button>
 5aa:	84 36       	cpi	r24, 0x64	; 100
 5ac:	89 f0       	breq	.+34     	; 0x5d0 <main+0x70>
 5ae:	28 f4       	brcc	.+10     	; 0x5ba <main+0x5a>
 5b0:	81 36       	cpi	r24, 0x61	; 97
 5b2:	51 f0       	breq	.+20     	; 0x5c8 <main+0x68>
 5b4:	82 36       	cpi	r24, 0x62	; 98
 5b6:	d1 f0       	breq	.+52     	; 0x5ec <main+0x8c>
 5b8:	20 c0       	rjmp	.+64     	; 0x5fa <main+0x9a>
 5ba:	8b 36       	cpi	r24, 0x6B	; 107
 5bc:	a1 f0       	breq	.+40     	; 0x5e6 <main+0x86>
 5be:	83 37       	cpi	r24, 0x73	; 115
 5c0:	59 f0       	breq	.+22     	; 0x5d8 <main+0x78>
 5c2:	8a 36       	cpi	r24, 0x6A	; 106
 5c4:	d1 f4       	brne	.+52     	; 0x5fa <main+0x9a>
 5c6:	0c c0       	rjmp	.+24     	; 0x5e0 <main+0x80>
			{
				// Left
				case 'a':
				shiftActiveBrick('l');
 5c8:	8c e6       	ldi	r24, 0x6C	; 108
 5ca:	0e 94 63 06 	call	0xcc6	; 0xcc6 <shiftActiveBrick>
				break;
 5ce:	15 c0       	rjmp	.+42     	; 0x5fa <main+0x9a>

				// Right
				case 'd':
				shiftActiveBrick('r');
 5d0:	82 e7       	ldi	r24, 0x72	; 114
 5d2:	0e 94 63 06 	call	0xcc6	; 0xcc6 <shiftActiveBrick>
				break;
 5d6:	11 c0       	rjmp	.+34     	; 0x5fa <main+0x9a>
			
				// Down
				case 's':
				shiftActiveBrick('d');
 5d8:	84 e6       	ldi	r24, 0x64	; 100
 5da:	0e 94 63 06 	call	0xcc6	; 0xcc6 <shiftActiveBrick>
				break;
 5de:	0d c0       	rjmp	.+26     	; 0x5fa <main+0x9a>
			
				// Rotate
				case 'j':
				rotateActiveBrick();
 5e0:	0e 94 55 05 	call	0xaaa	; 0xaaa <rotateActiveBrick>
				break;
 5e4:	0a c0       	rjmp	.+20     	; 0x5fa <main+0x9a>
			
				case 'k':
				forcedown();
 5e6:	0e 94 c8 07 	call	0xf90	; 0xf90 <forcedown>
				break;
 5ea:	07 c0       	rjmp	.+14     	; 0x5fa <main+0x9a>
			
				// Pause
				//case 'l':
				case 'b':
				pause = 0;
 5ec:	10 92 52 02 	sts	0x0252, r1	; 0x800252 <pause>
				button = ' ';
 5f0:	80 e2       	ldi	r24, 0x20	; 32
 5f2:	80 93 6f 02 	sts	0x026F, r24	; 0x80026f <button>
				Pause();
 5f6:	0e 94 bb 07 	call	0xf76	; 0xf76 <Pause>
				break;
				
				//default:
				// default statements
			}
			checkFullLines();
 5fa:	0e 94 0a 07 	call	0xe14	; 0xe14 <checkFullLines>
			button = ' ';
 5fe:	80 e2       	ldi	r24, 0x20	; 32
 600:	80 93 6f 02 	sts	0x026F, r24	; 0x80026f <button>
	#else
		//round up by default
		__ticks_dc = (uint32_t)(ceil(fabs(__tmp)));
	#endif

	__builtin_avr_delay_cycles(__ticks_dc);
 604:	2f e7       	ldi	r18, 0x7F	; 127
 606:	88 e3       	ldi	r24, 0x38	; 56
 608:	91 e0       	ldi	r25, 0x01	; 1
 60a:	21 50       	subi	r18, 0x01	; 1
 60c:	80 40       	sbci	r24, 0x00	; 0
 60e:	90 40       	sbci	r25, 0x00	; 0
 610:	e1 f7       	brne	.-8      	; 0x60a <main+0xaa>
 612:	00 c0       	rjmp	.+0      	; 0x614 <main+0xb4>
 614:	00 00       	nop
			_delay_ms(50);
			if (tetrisGameOver) 
 616:	80 91 60 02 	lds	r24, 0x0260	; 0x800260 <tetrisGameOver>
 61a:	88 23       	and	r24, r24
 61c:	21 f2       	breq	.-120    	; 0x5a6 <main+0x46>
			{
				falltime = 200;
 61e:	88 ec       	ldi	r24, 0xC8	; 200
 620:	90 e0       	ldi	r25, 0x00	; 0
 622:	90 93 54 02 	sts	0x0254, r25	; 0x800254 <falltime+0x1>
 626:	80 93 53 02 	sts	0x0253, r24	; 0x800253 <falltime>
				clearTable();
 62a:	0e 94 9f 07 	call	0xf3e	; 0xf3e <clearTable>
				clearField();
 62e:	0e 94 84 07 	call	0xf08	; 0xf08 <clearField>
				break;
			}
		}
		tetrisGameOver = 0;
 632:	10 92 60 02 	sts	0x0260, r1	; 0x800260 <tetrisGameOver>
	}
 636:	96 cf       	rjmp	.-212    	; 0x564 <main+0x4>

00000638 <addActiveBrickToField>:
		led[pgm_read_byte(&(matrix[2][i]))] = colors[5];	// blue Q 
		}
	}
	
	//led[0] = colors[3];
	ws2812_setleds(led,MAXPIX);
 638:	cf 93       	push	r28
 63a:	df 93       	push	r29
 63c:	b0 e0       	ldi	r27, 0x00	; 0
 63e:	4b c0       	rjmp	.+150    	; 0x6d6 <addActiveBrickToField+0x9e>
 640:	e7 ef       	ldi	r30, 0xF7	; 247
 642:	f5 e0       	ldi	r31, 0x05	; 5
 644:	81 81       	ldd	r24, Z+1	; 0x01
 646:	8a 0f       	add	r24, r26
 648:	22 81       	ldd	r18, Z+2	; 0x02
 64a:	2b 0f       	add	r18, r27
 64c:	8c 30       	cpi	r24, 0x0C	; 12
 64e:	e0 f5       	brcc	.+120    	; 0x6c8 <addActiveBrickToField+0x90>
 650:	24 31       	cpi	r18, 0x14	; 20
 652:	d0 f5       	brcc	.+116    	; 0x6c8 <addActiveBrickToField+0x90>
 654:	4b 2f       	mov	r20, r27
 656:	50 e0       	ldi	r21, 0x00	; 0
 658:	6a 2f       	mov	r22, r26
 65a:	70 e0       	ldi	r23, 0x00	; 0
 65c:	fa 01       	movw	r30, r20
 65e:	ee 0f       	add	r30, r30
 660:	ff 1f       	adc	r31, r31
 662:	ee 0f       	add	r30, r30
 664:	ff 1f       	adc	r31, r31
 666:	e9 50       	subi	r30, 0x09	; 9
 668:	fa 4f       	sbci	r31, 0xFA	; 250
 66a:	e6 0f       	add	r30, r22
 66c:	f7 1f       	adc	r31, r23
 66e:	c5 81       	ldd	r28, Z+5	; 0x05
 670:	cc 23       	and	r28, r28
 672:	51 f1       	breq	.+84     	; 0x6c8 <addActiveBrickToField+0x90>
 674:	30 e0       	ldi	r19, 0x00	; 0
 676:	90 e0       	ldi	r25, 0x00	; 0
 678:	dd e0       	ldi	r29, 0x0D	; 13
 67a:	d2 9f       	mul	r29, r18
 67c:	f0 01       	movw	r30, r0
 67e:	d3 9f       	mul	r29, r19
 680:	f0 0d       	add	r31, r0
 682:	11 24       	eor	r1, r1
 684:	ea 5d       	subi	r30, 0xDA	; 218
 686:	f9 4f       	sbci	r31, 0xF9	; 249
 688:	e8 0f       	add	r30, r24
 68a:	f9 1f       	adc	r31, r25
 68c:	c0 83       	st	Z, r28
 68e:	c0 91 0c 06 	lds	r28, 0x060C	; 0x80060c <activeBrick+0x15>
 692:	f9 01       	movw	r30, r18
 694:	ee 0f       	add	r30, r30
 696:	ff 1f       	adc	r31, r31
 698:	2e 0f       	add	r18, r30
 69a:	3f 1f       	adc	r19, r31
 69c:	22 0f       	add	r18, r18
 69e:	33 1f       	adc	r19, r19
 6a0:	22 0f       	add	r18, r18
 6a2:	33 1f       	adc	r19, r19
 6a4:	2a 5d       	subi	r18, 0xDA	; 218
 6a6:	39 4f       	sbci	r19, 0xF9	; 249
 6a8:	82 0f       	add	r24, r18
 6aa:	93 1f       	adc	r25, r19
 6ac:	fc 01       	movw	r30, r24
 6ae:	ec 5f       	subi	r30, 0xFC	; 252
 6b0:	fe 4f       	sbci	r31, 0xFE	; 254
 6b2:	c0 83       	st	Z, r28
 6b4:	44 0f       	add	r20, r20
 6b6:	55 1f       	adc	r21, r21
 6b8:	44 0f       	add	r20, r20
 6ba:	55 1f       	adc	r21, r21
 6bc:	49 50       	subi	r20, 0x09	; 9
 6be:	5a 4f       	sbci	r21, 0xFA	; 250
 6c0:	fa 01       	movw	r30, r20
 6c2:	e6 0f       	add	r30, r22
 6c4:	f7 1f       	adc	r31, r23
 6c6:	15 82       	std	Z+5, r1	; 0x05
 6c8:	af 5f       	subi	r26, 0xFF	; 255
 6ca:	01 c0       	rjmp	.+2      	; 0x6ce <addActiveBrickToField+0x96>
 6cc:	a0 e0       	ldi	r26, 0x00	; 0
 6ce:	a4 30       	cpi	r26, 0x04	; 4
 6d0:	08 f4       	brcc	.+2      	; 0x6d4 <addActiveBrickToField+0x9c>
 6d2:	b6 cf       	rjmp	.-148    	; 0x640 <addActiveBrickToField+0x8>
 6d4:	bf 5f       	subi	r27, 0xFF	; 255
 6d6:	b4 30       	cpi	r27, 0x04	; 4
 6d8:	c8 f3       	brcs	.-14     	; 0x6cc <addActiveBrickToField+0x94>
 6da:	10 92 61 02 	sts	0x0261, r1	; 0x800261 <I_rot>
 6de:	85 e8       	ldi	r24, 0x85	; 133
 6e0:	8a 95       	dec	r24
 6e2:	f1 f7       	brne	.-4      	; 0x6e0 <addActiveBrickToField+0xa8>
 6e4:	00 00       	nop
 6e6:	df 91       	pop	r29
 6e8:	cf 91       	pop	r28
 6ea:	08 95       	ret

000006ec <checkSidesCollision>:
 6ec:	dc 01       	movw	r26, r24
 6ee:	30 e0       	ldi	r19, 0x00	; 0
 6f0:	19 c0       	rjmp	.+50     	; 0x724 <checkSidesCollision+0x38>
 6f2:	e3 2f       	mov	r30, r19
 6f4:	f0 e0       	ldi	r31, 0x00	; 0
 6f6:	ee 0f       	add	r30, r30
 6f8:	ff 1f       	adc	r31, r31
 6fa:	ee 0f       	add	r30, r30
 6fc:	ff 1f       	adc	r31, r31
 6fe:	ea 0f       	add	r30, r26
 700:	fb 1f       	adc	r31, r27
 702:	e9 0f       	add	r30, r25
 704:	f1 1d       	adc	r31, r1
 706:	25 81       	ldd	r18, Z+5	; 0x05
 708:	22 23       	and	r18, r18
 70a:	31 f0       	breq	.+12     	; 0x718 <checkSidesCollision+0x2c>
 70c:	11 96       	adiw	r26, 0x01	; 1
 70e:	2c 91       	ld	r18, X
 710:	11 97       	sbiw	r26, 0x01	; 1
 712:	29 0f       	add	r18, r25
 714:	2c 30       	cpi	r18, 0x0C	; 12
 716:	58 f4       	brcc	.+22     	; 0x72e <checkSidesCollision+0x42>
 718:	9f 5f       	subi	r25, 0xFF	; 255
 71a:	01 c0       	rjmp	.+2      	; 0x71e <checkSidesCollision+0x32>
 71c:	90 e0       	ldi	r25, 0x00	; 0
 71e:	94 30       	cpi	r25, 0x04	; 4
 720:	40 f3       	brcs	.-48     	; 0x6f2 <checkSidesCollision+0x6>
 722:	3f 5f       	subi	r19, 0xFF	; 255
 724:	34 30       	cpi	r19, 0x04	; 4
 726:	d0 f3       	brcs	.-12     	; 0x71c <checkSidesCollision+0x30>
 728:	80 e0       	ldi	r24, 0x00	; 0
 72a:	90 e0       	ldi	r25, 0x00	; 0
 72c:	08 95       	ret
 72e:	81 e0       	ldi	r24, 0x01	; 1
 730:	90 e0       	ldi	r25, 0x00	; 0
 732:	08 95       	ret

00000734 <checkFieldCollision>:
 734:	dc 01       	movw	r26, r24
 736:	30 e0       	ldi	r19, 0x00	; 0
 738:	27 c0       	rjmp	.+78     	; 0x788 <checkFieldCollision+0x54>
 73a:	11 96       	adiw	r26, 0x01	; 1
 73c:	8c 91       	ld	r24, X
 73e:	11 97       	sbiw	r26, 0x01	; 1
 740:	89 0f       	add	r24, r25
 742:	12 96       	adiw	r26, 0x02	; 2
 744:	ec 91       	ld	r30, X
 746:	12 97       	sbiw	r26, 0x02	; 2
 748:	23 2f       	mov	r18, r19
 74a:	2e 0f       	add	r18, r30
 74c:	e3 2f       	mov	r30, r19
 74e:	f0 e0       	ldi	r31, 0x00	; 0
 750:	ee 0f       	add	r30, r30
 752:	ff 1f       	adc	r31, r31
 754:	ee 0f       	add	r30, r30
 756:	ff 1f       	adc	r31, r31
 758:	ea 0f       	add	r30, r26
 75a:	fb 1f       	adc	r31, r27
 75c:	e9 0f       	add	r30, r25
 75e:	f1 1d       	adc	r31, r1
 760:	45 81       	ldd	r20, Z+5	; 0x05
 762:	41 30       	cpi	r20, 0x01	; 1
 764:	59 f4       	brne	.+22     	; 0x77c <checkFieldCollision+0x48>
 766:	4d e0       	ldi	r20, 0x0D	; 13
 768:	24 9f       	mul	r18, r20
 76a:	f0 01       	movw	r30, r0
 76c:	11 24       	eor	r1, r1
 76e:	ea 5d       	subi	r30, 0xDA	; 218
 770:	f9 4f       	sbci	r31, 0xF9	; 249
 772:	e8 0f       	add	r30, r24
 774:	f1 1d       	adc	r31, r1
 776:	80 81       	ld	r24, Z
 778:	81 30       	cpi	r24, 0x01	; 1
 77a:	59 f0       	breq	.+22     	; 0x792 <checkFieldCollision+0x5e>
 77c:	9f 5f       	subi	r25, 0xFF	; 255
 77e:	01 c0       	rjmp	.+2      	; 0x782 <checkFieldCollision+0x4e>
 780:	90 e0       	ldi	r25, 0x00	; 0
 782:	94 30       	cpi	r25, 0x04	; 4
 784:	d0 f2       	brcs	.-76     	; 0x73a <checkFieldCollision+0x6>
 786:	3f 5f       	subi	r19, 0xFF	; 255
 788:	34 30       	cpi	r19, 0x04	; 4
 78a:	d0 f3       	brcs	.-12     	; 0x780 <checkFieldCollision+0x4c>
 78c:	80 e0       	ldi	r24, 0x00	; 0
 78e:	90 e0       	ldi	r25, 0x00	; 0
 790:	08 95       	ret
 792:	81 e0       	ldi	r24, 0x01	; 1
 794:	90 e0       	ldi	r25, 0x00	; 0
 796:	08 95       	ret

00000798 <printField>:
 798:	cf 92       	push	r12
 79a:	df 92       	push	r13
 79c:	ef 92       	push	r14
 79e:	40 e0       	ldi	r20, 0x00	; 0
 7a0:	50 e0       	ldi	r21, 0x00	; 0
 7a2:	d3 c0       	rjmp	.+422    	; 0x94a <__stack+0x4b>
 7a4:	20 91 f7 05 	lds	r18, 0x05F7	; 0x8005f7 <activeBrick>
 7a8:	22 23       	and	r18, r18
 7aa:	59 f1       	breq	.+86     	; 0x802 <__DATA_REGION_LENGTH__+0x2>
 7ac:	20 91 f8 05 	lds	r18, 0x05F8	; 0x8005f8 <activeBrick+0x1>
 7b0:	30 e0       	ldi	r19, 0x00	; 0
 7b2:	42 17       	cp	r20, r18
 7b4:	53 07       	cpc	r21, r19
 7b6:	3c f1       	brlt	.+78     	; 0x806 <__DATA_REGION_LENGTH__+0x6>
 7b8:	60 91 fb 05 	lds	r22, 0x05FB	; 0x8005fb <activeBrick+0x4>
 7bc:	70 e0       	ldi	r23, 0x00	; 0
 7be:	f9 01       	movw	r30, r18
 7c0:	e6 0f       	add	r30, r22
 7c2:	f7 1f       	adc	r31, r23
 7c4:	4e 17       	cp	r20, r30
 7c6:	5f 07       	cpc	r21, r31
 7c8:	04 f5       	brge	.+64     	; 0x80a <__DATA_REGION_LENGTH__+0xa>
 7ca:	e0 91 f9 05 	lds	r30, 0x05F9	; 0x8005f9 <activeBrick+0x2>
 7ce:	f0 e0       	ldi	r31, 0x00	; 0
 7d0:	8e 17       	cp	r24, r30
 7d2:	9f 07       	cpc	r25, r31
 7d4:	e4 f0       	brlt	.+56     	; 0x80e <__DATA_REGION_LENGTH__+0xe>
 7d6:	6e 0f       	add	r22, r30
 7d8:	7f 1f       	adc	r23, r31
 7da:	86 17       	cp	r24, r22
 7dc:	97 07       	cpc	r25, r23
 7de:	cc f4       	brge	.+50     	; 0x812 <__DATA_REGION_LENGTH__+0x12>
 7e0:	bc 01       	movw	r22, r24
 7e2:	6e 1b       	sub	r22, r30
 7e4:	7f 0b       	sbc	r23, r31
 7e6:	fa 01       	movw	r30, r20
 7e8:	e2 1b       	sub	r30, r18
 7ea:	f3 0b       	sbc	r31, r19
 7ec:	9b 01       	movw	r18, r22
 7ee:	22 0f       	add	r18, r18
 7f0:	33 1f       	adc	r19, r19
 7f2:	22 0f       	add	r18, r18
 7f4:	33 1f       	adc	r19, r19
 7f6:	29 50       	subi	r18, 0x09	; 9
 7f8:	3a 4f       	sbci	r19, 0xFA	; 250
 7fa:	e2 0f       	add	r30, r18
 7fc:	f3 1f       	adc	r31, r19
 7fe:	35 81       	ldd	r19, Z+5	; 0x05
 800:	09 c0       	rjmp	.+18     	; 0x814 <__DATA_REGION_LENGTH__+0x14>
 802:	30 e0       	ldi	r19, 0x00	; 0
 804:	07 c0       	rjmp	.+14     	; 0x814 <__DATA_REGION_LENGTH__+0x14>
 806:	30 e0       	ldi	r19, 0x00	; 0
 808:	05 c0       	rjmp	.+10     	; 0x814 <__DATA_REGION_LENGTH__+0x14>
 80a:	30 e0       	ldi	r19, 0x00	; 0
 80c:	03 c0       	rjmp	.+6      	; 0x814 <__DATA_REGION_LENGTH__+0x14>
 80e:	30 e0       	ldi	r19, 0x00	; 0
 810:	01 c0       	rjmp	.+2      	; 0x814 <__DATA_REGION_LENGTH__+0x14>
 812:	30 e0       	ldi	r19, 0x00	; 0
 814:	2d e0       	ldi	r18, 0x0D	; 13
 816:	28 9f       	mul	r18, r24
 818:	f0 01       	movw	r30, r0
 81a:	29 9f       	mul	r18, r25
 81c:	f0 0d       	add	r31, r0
 81e:	11 24       	eor	r1, r1
 820:	ea 5d       	subi	r30, 0xDA	; 218
 822:	f9 4f       	sbci	r31, 0xF9	; 249
 824:	e4 0f       	add	r30, r20
 826:	f5 1f       	adc	r31, r21
 828:	20 81       	ld	r18, Z
 82a:	22 23       	and	r18, r18
 82c:	b9 f1       	breq	.+110    	; 0x89c <__DATA_REGION_LENGTH__+0x9c>
 82e:	9c 01       	movw	r18, r24
 830:	22 0f       	add	r18, r18
 832:	33 1f       	adc	r19, r19
 834:	f9 01       	movw	r30, r18
 836:	e8 0f       	add	r30, r24
 838:	f9 1f       	adc	r31, r25
 83a:	ee 0f       	add	r30, r30
 83c:	ff 1f       	adc	r31, r31
 83e:	ee 0f       	add	r30, r30
 840:	ff 1f       	adc	r31, r31
 842:	e4 0f       	add	r30, r20
 844:	f5 1f       	adc	r31, r21
 846:	ee 0f       	add	r30, r30
 848:	ff 1f       	adc	r31, r31
 84a:	e8 59       	subi	r30, 0x98	; 152
 84c:	ff 4f       	sbci	r31, 0xFF	; 255
 84e:	e4 91       	lpm	r30, Z
 850:	f0 e0       	ldi	r31, 0x00	; 0
 852:	d9 01       	movw	r26, r18
 854:	a8 0f       	add	r26, r24
 856:	b9 1f       	adc	r27, r25
 858:	aa 0f       	add	r26, r26
 85a:	bb 1f       	adc	r27, r27
 85c:	aa 0f       	add	r26, r26
 85e:	bb 1f       	adc	r27, r27
 860:	aa 5d       	subi	r26, 0xDA	; 218
 862:	b9 4f       	sbci	r27, 0xF9	; 249
 864:	a4 0f       	add	r26, r20
 866:	b5 1f       	adc	r27, r21
 868:	ac 5f       	subi	r26, 0xFC	; 252
 86a:	be 4f       	sbci	r27, 0xFE	; 254
 86c:	2c 91       	ld	r18, X
 86e:	30 e0       	ldi	r19, 0x00	; 0
 870:	bf 01       	movw	r22, r30
 872:	66 0f       	add	r22, r22
 874:	77 1f       	adc	r23, r23
 876:	e6 0f       	add	r30, r22
 878:	f7 1f       	adc	r31, r23
 87a:	ee 58       	subi	r30, 0x8E	; 142
 87c:	fd 4f       	sbci	r31, 0xFD	; 253
 87e:	d9 01       	movw	r26, r18
 880:	aa 0f       	add	r26, r26
 882:	bb 1f       	adc	r27, r27
 884:	2a 0f       	add	r18, r26
 886:	3b 1f       	adc	r19, r27
 888:	d9 01       	movw	r26, r18
 88a:	ae 5f       	subi	r26, 0xFE	; 254
 88c:	be 4f       	sbci	r27, 0xFE	; 254
 88e:	cd 90       	ld	r12, X+
 890:	dd 90       	ld	r13, X+
 892:	ec 90       	ld	r14, X
 894:	c0 82       	st	Z, r12
 896:	d1 82       	std	Z+1, r13	; 0x01
 898:	e2 82       	std	Z+2, r14	; 0x02
 89a:	4d c0       	rjmp	.+154    	; 0x936 <__stack+0x37>
 89c:	33 23       	and	r19, r19
 89e:	51 f1       	breq	.+84     	; 0x8f4 <__DATA_REGION_LENGTH__+0xf4>
 8a0:	fc 01       	movw	r30, r24
 8a2:	ee 0f       	add	r30, r30
 8a4:	ff 1f       	adc	r31, r31
 8a6:	e8 0f       	add	r30, r24
 8a8:	f9 1f       	adc	r31, r25
 8aa:	ee 0f       	add	r30, r30
 8ac:	ff 1f       	adc	r31, r31
 8ae:	ee 0f       	add	r30, r30
 8b0:	ff 1f       	adc	r31, r31
 8b2:	e4 0f       	add	r30, r20
 8b4:	f5 1f       	adc	r31, r21
 8b6:	ee 0f       	add	r30, r30
 8b8:	ff 1f       	adc	r31, r31
 8ba:	e8 59       	subi	r30, 0x98	; 152
 8bc:	ff 4f       	sbci	r31, 0xFF	; 255
 8be:	e4 91       	lpm	r30, Z
 8c0:	f0 e0       	ldi	r31, 0x00	; 0
 8c2:	20 91 0c 06 	lds	r18, 0x060C	; 0x80060c <activeBrick+0x15>
 8c6:	30 e0       	ldi	r19, 0x00	; 0
 8c8:	bf 01       	movw	r22, r30
 8ca:	66 0f       	add	r22, r22
 8cc:	77 1f       	adc	r23, r23
 8ce:	e6 0f       	add	r30, r22
 8d0:	f7 1f       	adc	r31, r23
 8d2:	ee 58       	subi	r30, 0x8E	; 142
 8d4:	fd 4f       	sbci	r31, 0xFD	; 253
 8d6:	d9 01       	movw	r26, r18
 8d8:	aa 0f       	add	r26, r26
 8da:	bb 1f       	adc	r27, r27
 8dc:	2a 0f       	add	r18, r26
 8de:	3b 1f       	adc	r19, r27
 8e0:	d9 01       	movw	r26, r18
 8e2:	ae 5f       	subi	r26, 0xFE	; 254
 8e4:	be 4f       	sbci	r27, 0xFE	; 254
 8e6:	cd 90       	ld	r12, X+
 8e8:	dd 90       	ld	r13, X+
 8ea:	ec 90       	ld	r14, X
 8ec:	c0 82       	st	Z, r12
 8ee:	d1 82       	std	Z+1, r13	; 0x01
 8f0:	e2 82       	std	Z+2, r14	; 0x02
 8f2:	21 c0       	rjmp	.+66     	; 0x936 <__stack+0x37>
 8f4:	fc 01       	movw	r30, r24
 8f6:	ee 0f       	add	r30, r30
 8f8:	ff 1f       	adc	r31, r31
 8fa:	e8 0f       	add	r30, r24
 8fc:	f9 1f       	adc	r31, r25
 8fe:	ee 0f       	add	r30, r30
 900:	ff 1f       	adc	r31, r31
 902:	ee 0f       	add	r30, r30
 904:	ff 1f       	adc	r31, r31
 906:	e4 0f       	add	r30, r20
 908:	f5 1f       	adc	r31, r21
 90a:	ee 0f       	add	r30, r30
 90c:	ff 1f       	adc	r31, r31
 90e:	e8 59       	subi	r30, 0x98	; 152
 910:	ff 4f       	sbci	r31, 0xFF	; 255
 912:	e4 91       	lpm	r30, Z
 914:	f0 e0       	ldi	r31, 0x00	; 0
 916:	9f 01       	movw	r18, r30
 918:	22 0f       	add	r18, r18
 91a:	33 1f       	adc	r19, r19
 91c:	e2 0f       	add	r30, r18
 91e:	f3 1f       	adc	r31, r19
 920:	ee 58       	subi	r30, 0x8E	; 142
 922:	fd 4f       	sbci	r31, 0xFD	; 253
 924:	c0 90 5b 02 	lds	r12, 0x025B	; 0x80025b <led_off>
 928:	d0 90 5c 02 	lds	r13, 0x025C	; 0x80025c <led_off+0x1>
 92c:	e0 90 5d 02 	lds	r14, 0x025D	; 0x80025d <led_off+0x2>
 930:	c0 82       	st	Z, r12
 932:	d1 82       	std	Z+1, r13	; 0x01
 934:	e2 82       	std	Z+2, r14	; 0x02
 936:	01 96       	adiw	r24, 0x01	; 1
 938:	02 c0       	rjmp	.+4      	; 0x93e <__stack+0x3f>
 93a:	80 e0       	ldi	r24, 0x00	; 0
 93c:	90 e0       	ldi	r25, 0x00	; 0
 93e:	84 31       	cpi	r24, 0x14	; 20
 940:	91 05       	cpc	r25, r1
 942:	0c f4       	brge	.+2      	; 0x946 <__stack+0x47>
 944:	2f cf       	rjmp	.-418    	; 0x7a4 <printField+0xc>
 946:	4f 5f       	subi	r20, 0xFF	; 255
 948:	5f 4f       	sbci	r21, 0xFF	; 255
 94a:	4c 30       	cpi	r20, 0x0C	; 12
 94c:	51 05       	cpc	r21, r1
 94e:	ac f3       	brlt	.-22     	; 0x93a <__stack+0x3b>
 950:	6c e2       	ldi	r22, 0x2C	; 44
 952:	71 e0       	ldi	r23, 0x01	; 1
 954:	82 e7       	ldi	r24, 0x72	; 114
 956:	92 e0       	ldi	r25, 0x02	; 2
 958:	0e 94 c3 01 	call	0x386	; 0x386 <ws2812_setleds>
 95c:	85 e8       	ldi	r24, 0x85	; 133
 95e:	8a 95       	dec	r24
 960:	f1 f7       	brne	.-4      	; 0x95e <__stack+0x5f>
 962:	00 00       	nop
 964:	ef 90       	pop	r14
 966:	df 90       	pop	r13
 968:	cf 90       	pop	r12
 96a:	08 95       	ret

0000096c <newActiveBrick>:
 96c:	cf 93       	push	r28
 96e:	df 93       	push	r29
 970:	cd b7       	in	r28, 0x3d	; 61
 972:	de b7       	in	r29, 0x3e	; 62
 974:	66 97       	sbiw	r28, 0x16	; 22
 976:	0f b6       	in	r0, 0x3f	; 63
 978:	f8 94       	cli
 97a:	de bf       	out	0x3e, r29	; 62
 97c:	0f be       	out	0x3f, r0	; 63
 97e:	cd bf       	out	0x3d, r28	; 61
 980:	90 91 64 02 	lds	r25, 0x0264	; 0x800264 <random6>
 984:	e9 2f       	mov	r30, r25
 986:	f0 e0       	ldi	r31, 0x00	; 0
 988:	ee 0f       	add	r30, r30
 98a:	ff 1f       	adc	r31, r31
 98c:	e0 5f       	subi	r30, 0xF0	; 240
 98e:	fc 4f       	sbci	r31, 0xFC	; 252
 990:	44 91       	lpm	r20, Z
 992:	40 93 5f 02 	sts	0x025F, r20	; 0x80025f <selectedBrick>
 996:	80 91 63 02 	lds	r24, 0x0263	; 0x800263 <random9>
 99a:	e8 2f       	mov	r30, r24
 99c:	f0 e0       	ldi	r31, 0x00	; 0
 99e:	ee 0f       	add	r30, r30
 9a0:	ff 1f       	adc	r31, r31
 9a2:	e0 54       	subi	r30, 0x40	; 64
 9a4:	fd 4f       	sbci	r31, 0xFD	; 253
 9a6:	34 91       	lpm	r19, Z
 9a8:	30 93 5e 02 	sts	0x025E, r19	; 0x80025e <selectedColor>
 9ac:	9f 5f       	subi	r25, 0xFF	; 255
 9ae:	90 93 64 02 	sts	0x0264, r25	; 0x800264 <random6>
 9b2:	8f 5f       	subi	r24, 0xFF	; 255
 9b4:	80 93 63 02 	sts	0x0263, r24	; 0x800263 <random9>
 9b8:	97 30       	cpi	r25, 0x07	; 7
 9ba:	10 f0       	brcs	.+4      	; 0x9c0 <newActiveBrick+0x54>
 9bc:	10 92 64 02 	sts	0x0264, r1	; 0x800264 <random6>
 9c0:	8a 30       	cpi	r24, 0x0A	; 10
 9c2:	10 f0       	brcs	.+4      	; 0x9c8 <newActiveBrick+0x5c>
 9c4:	10 92 63 02 	sts	0x0263, r1	; 0x800263 <random9>
 9c8:	50 e0       	ldi	r21, 0x00	; 0
 9ca:	22 e2       	ldi	r18, 0x22	; 34
 9cc:	24 9f       	mul	r18, r20
 9ce:	c0 01       	movw	r24, r0
 9d0:	25 9f       	mul	r18, r21
 9d2:	90 0d       	add	r25, r0
 9d4:	11 24       	eor	r1, r1
 9d6:	80 5e       	subi	r24, 0xE0	; 224
 9d8:	9e 4f       	sbci	r25, 0xFE	; 254
 9da:	dc 01       	movw	r26, r24
 9dc:	11 96       	adiw	r26, 0x01	; 1
 9de:	2c 91       	ld	r18, X
 9e0:	a7 ef       	ldi	r26, 0xF7	; 247
 9e2:	b5 e0       	ldi	r27, 0x05	; 5
 9e4:	14 96       	adiw	r26, 0x04	; 4
 9e6:	2c 93       	st	X, r18
 9e8:	14 97       	sbiw	r26, 0x04	; 4
 9ea:	fc 01       	movw	r30, r24
 9ec:	80 81       	ld	r24, Z
 9ee:	13 96       	adiw	r26, 0x03	; 3
 9f0:	8c 93       	st	X, r24
 9f2:	13 97       	sbiw	r26, 0x03	; 3
 9f4:	86 e0       	ldi	r24, 0x06	; 6
 9f6:	11 96       	adiw	r26, 0x01	; 1
 9f8:	8c 93       	st	X, r24
 9fa:	11 97       	sbiw	r26, 0x01	; 1
 9fc:	8a e0       	ldi	r24, 0x0A	; 10
 9fe:	12 96       	adiw	r26, 0x02	; 2
 a00:	8c 93       	st	X, r24
 a02:	12 97       	sbiw	r26, 0x02	; 2
 a04:	81 e0       	ldi	r24, 0x01	; 1
 a06:	8c 93       	st	X, r24
 a08:	55 96       	adiw	r26, 0x15	; 21
 a0a:	3c 93       	st	X, r19
 a0c:	70 e0       	ldi	r23, 0x00	; 0
 a0e:	25 c0       	rjmp	.+74     	; 0xa5a <newActiveBrick+0xee>
 a10:	87 2f       	mov	r24, r23
 a12:	90 e0       	ldi	r25, 0x00	; 0
 a14:	26 2f       	mov	r18, r22
 a16:	30 e0       	ldi	r19, 0x00	; 0
 a18:	88 0f       	add	r24, r24
 a1a:	99 1f       	adc	r25, r25
 a1c:	88 0f       	add	r24, r24
 a1e:	99 1f       	adc	r25, r25
 a20:	a1 e1       	ldi	r26, 0x11	; 17
 a22:	a4 9f       	mul	r26, r20
 a24:	f0 01       	movw	r30, r0
 a26:	a5 9f       	mul	r26, r21
 a28:	f0 0d       	add	r31, r0
 a2a:	11 24       	eor	r1, r1
 a2c:	e8 0f       	add	r30, r24
 a2e:	f9 1f       	adc	r31, r25
 a30:	e2 0f       	add	r30, r18
 a32:	f3 1f       	adc	r31, r19
 a34:	31 96       	adiw	r30, 0x01	; 1
 a36:	ee 0f       	add	r30, r30
 a38:	ff 1f       	adc	r31, r31
 a3a:	e0 5e       	subi	r30, 0xE0	; 224
 a3c:	fe 4f       	sbci	r31, 0xFE	; 254
 a3e:	e0 81       	ld	r30, Z
 a40:	89 50       	subi	r24, 0x09	; 9
 a42:	9a 4f       	sbci	r25, 0xFA	; 250
 a44:	dc 01       	movw	r26, r24
 a46:	a2 0f       	add	r26, r18
 a48:	b3 1f       	adc	r27, r19
 a4a:	15 96       	adiw	r26, 0x05	; 5
 a4c:	ec 93       	st	X, r30
 a4e:	6f 5f       	subi	r22, 0xFF	; 255
 a50:	01 c0       	rjmp	.+2      	; 0xa54 <newActiveBrick+0xe8>
 a52:	60 e0       	ldi	r22, 0x00	; 0
 a54:	64 30       	cpi	r22, 0x04	; 4
 a56:	e0 f2       	brcs	.-72     	; 0xa10 <newActiveBrick+0xa4>
 a58:	7f 5f       	subi	r23, 0xFF	; 255
 a5a:	74 30       	cpi	r23, 0x04	; 4
 a5c:	d0 f3       	brcs	.-12     	; 0xa52 <newActiveBrick+0xe6>
 a5e:	86 e1       	ldi	r24, 0x16	; 22
 a60:	e7 ef       	ldi	r30, 0xF7	; 247
 a62:	f5 e0       	ldi	r31, 0x05	; 5
 a64:	de 01       	movw	r26, r28
 a66:	11 96       	adiw	r26, 0x01	; 1
 a68:	01 90       	ld	r0, Z+
 a6a:	0d 92       	st	X+, r0
 a6c:	8a 95       	dec	r24
 a6e:	e1 f7       	brne	.-8      	; 0xa68 <newActiveBrick+0xfc>
 a70:	86 e1       	ldi	r24, 0x16	; 22
 a72:	fe 01       	movw	r30, r28
 a74:	31 96       	adiw	r30, 0x01	; 1
 a76:	a7 ef       	ldi	r26, 0xF7	; 247
 a78:	b5 e0       	ldi	r27, 0x05	; 5
 a7a:	01 90       	ld	r0, Z+
 a7c:	0d 92       	st	X+, r0
 a7e:	8a 95       	dec	r24
 a80:	e1 f7       	brne	.-8      	; 0xa7a <newActiveBrick+0x10e>
 a82:	0e 94 cc 03 	call	0x798	; 0x798 <printField>
 a86:	87 ef       	ldi	r24, 0xF7	; 247
 a88:	95 e0       	ldi	r25, 0x05	; 5
 a8a:	0e 94 9a 03 	call	0x734	; 0x734 <checkFieldCollision>
 a8e:	89 2b       	or	r24, r25
 a90:	19 f0       	breq	.+6      	; 0xa98 <newActiveBrick+0x12c>
 a92:	81 e0       	ldi	r24, 0x01	; 1
 a94:	80 93 60 02 	sts	0x0260, r24	; 0x800260 <tetrisGameOver>
 a98:	66 96       	adiw	r28, 0x16	; 22
 a9a:	0f b6       	in	r0, 0x3f	; 63
 a9c:	f8 94       	cli
 a9e:	de bf       	out	0x3e, r29	; 62
 aa0:	0f be       	out	0x3f, r0	; 63
 aa2:	cd bf       	out	0x3d, r28	; 61
 aa4:	df 91       	pop	r29
 aa6:	cf 91       	pop	r28
 aa8:	08 95       	ret

00000aaa <rotateActiveBrick>:
 aaa:	60 e0       	ldi	r22, 0x00	; 0
 aac:	1a c0       	rjmp	.+52     	; 0xae2 <rotateActiveBrick+0x38>
 aae:	86 2f       	mov	r24, r22
 ab0:	90 e0       	ldi	r25, 0x00	; 0
 ab2:	24 2f       	mov	r18, r20
 ab4:	30 e0       	ldi	r19, 0x00	; 0
 ab6:	88 0f       	add	r24, r24
 ab8:	99 1f       	adc	r25, r25
 aba:	88 0f       	add	r24, r24
 abc:	99 1f       	adc	r25, r25
 abe:	fc 01       	movw	r30, r24
 ac0:	e9 50       	subi	r30, 0x09	; 9
 ac2:	fa 4f       	sbci	r31, 0xFA	; 250
 ac4:	e2 0f       	add	r30, r18
 ac6:	f3 1f       	adc	r31, r19
 ac8:	55 81       	ldd	r21, Z+5	; 0x05
 aca:	83 5f       	subi	r24, 0xF3	; 243
 acc:	99 4f       	sbci	r25, 0xF9	; 249
 ace:	fc 01       	movw	r30, r24
 ad0:	e2 0f       	add	r30, r18
 ad2:	f3 1f       	adc	r31, r19
 ad4:	55 83       	std	Z+5, r21	; 0x05
 ad6:	4f 5f       	subi	r20, 0xFF	; 255
 ad8:	01 c0       	rjmp	.+2      	; 0xadc <rotateActiveBrick+0x32>
 ada:	40 e0       	ldi	r20, 0x00	; 0
 adc:	44 30       	cpi	r20, 0x04	; 4
 ade:	38 f3       	brcs	.-50     	; 0xaae <rotateActiveBrick+0x4>
 ae0:	6f 5f       	subi	r22, 0xFF	; 255
 ae2:	64 30       	cpi	r22, 0x04	; 4
 ae4:	d0 f3       	brcs	.-12     	; 0xada <rotateActiveBrick+0x30>
 ae6:	a7 ef       	ldi	r26, 0xF7	; 247
 ae8:	b5 e0       	ldi	r27, 0x05	; 5
 aea:	11 96       	adiw	r26, 0x01	; 1
 aec:	8c 91       	ld	r24, X
 aee:	11 97       	sbiw	r26, 0x01	; 1
 af0:	ed e0       	ldi	r30, 0x0D	; 13
 af2:	f6 e0       	ldi	r31, 0x06	; 6
 af4:	81 83       	std	Z+1, r24	; 0x01
 af6:	12 96       	adiw	r26, 0x02	; 2
 af8:	8c 91       	ld	r24, X
 afa:	12 97       	sbiw	r26, 0x02	; 2
 afc:	82 83       	std	Z+2, r24	; 0x02
 afe:	14 96       	adiw	r26, 0x04	; 4
 b00:	8c 91       	ld	r24, X
 b02:	14 97       	sbiw	r26, 0x04	; 4
 b04:	84 83       	std	Z+4, r24	; 0x04
 b06:	83 30       	cpi	r24, 0x03	; 3
 b08:	09 f0       	breq	.+2      	; 0xb0c <rotateActiveBrick+0x62>
 b0a:	5a c0       	rjmp	.+180    	; 0xbc0 <rotateActiveBrick+0x116>
 b0c:	17 96       	adiw	r26, 0x07	; 7
 b0e:	8c 91       	ld	r24, X
 b10:	17 97       	sbiw	r26, 0x07	; 7
 b12:	85 83       	std	Z+5, r24	; 0x05
 b14:	1b 96       	adiw	r26, 0x0b	; 11
 b16:	8c 91       	ld	r24, X
 b18:	1b 97       	sbiw	r26, 0x0b	; 11
 b1a:	86 83       	std	Z+6, r24	; 0x06
 b1c:	1f 96       	adiw	r26, 0x0f	; 15
 b1e:	8c 91       	ld	r24, X
 b20:	1f 97       	sbiw	r26, 0x0f	; 15
 b22:	87 83       	std	Z+7, r24	; 0x07
 b24:	16 96       	adiw	r26, 0x06	; 6
 b26:	8c 91       	ld	r24, X
 b28:	16 97       	sbiw	r26, 0x06	; 6
 b2a:	81 87       	std	Z+9, r24	; 0x09
 b2c:	1a 96       	adiw	r26, 0x0a	; 10
 b2e:	8c 91       	ld	r24, X
 b30:	1a 97       	sbiw	r26, 0x0a	; 10
 b32:	82 87       	std	Z+10, r24	; 0x0a
 b34:	1e 96       	adiw	r26, 0x0e	; 14
 b36:	8c 91       	ld	r24, X
 b38:	1e 97       	sbiw	r26, 0x0e	; 14
 b3a:	83 87       	std	Z+11, r24	; 0x0b
 b3c:	15 96       	adiw	r26, 0x05	; 5
 b3e:	8c 91       	ld	r24, X
 b40:	15 97       	sbiw	r26, 0x05	; 5
 b42:	85 87       	std	Z+13, r24	; 0x0d
 b44:	19 96       	adiw	r26, 0x09	; 9
 b46:	8c 91       	ld	r24, X
 b48:	19 97       	sbiw	r26, 0x09	; 9
 b4a:	86 87       	std	Z+14, r24	; 0x0e
 b4c:	1d 96       	adiw	r26, 0x0d	; 13
 b4e:	8c 91       	ld	r24, X
 b50:	87 87       	std	Z+15, r24	; 0x0f
 b52:	10 86       	std	Z+8, r1	; 0x08
 b54:	14 86       	std	Z+12, r1	; 0x0c
 b56:	10 8a       	std	Z+16, r1	; 0x10
 b58:	14 8a       	std	Z+20, r1	; 0x14
 b5a:	13 8a       	std	Z+19, r1	; 0x13
 b5c:	12 8a       	std	Z+18, r1	; 0x12
 b5e:	11 8a       	std	Z+17, r1	; 0x11
 b60:	70 91 62 02 	lds	r23, 0x0262	; 0x800262 <t_rot>
 b64:	7f 5f       	subi	r23, 0xFF	; 255
 b66:	70 93 62 02 	sts	0x0262, r23	; 0x800262 <t_rot>
 b6a:	72 30       	cpi	r23, 0x02	; 2
 b6c:	19 f5       	brne	.+70     	; 0xbb4 <rotateActiveBrick+0x10a>
 b6e:	1f c0       	rjmp	.+62     	; 0xbae <rotateActiveBrick+0x104>
 b70:	86 2f       	mov	r24, r22
 b72:	90 e0       	ldi	r25, 0x00	; 0
 b74:	24 2f       	mov	r18, r20
 b76:	30 e0       	ldi	r19, 0x00	; 0
 b78:	88 0f       	add	r24, r24
 b7a:	99 1f       	adc	r25, r25
 b7c:	88 0f       	add	r24, r24
 b7e:	99 1f       	adc	r25, r25
 b80:	fc 01       	movw	r30, r24
 b82:	e2 0f       	add	r30, r18
 b84:	f3 1f       	adc	r31, r19
 b86:	e7 57       	subi	r30, 0x77	; 119
 b88:	ff 4f       	sbci	r31, 0xFF	; 255
 b8a:	ee 0f       	add	r30, r30
 b8c:	ff 1f       	adc	r31, r31
 b8e:	e0 5e       	subi	r30, 0xE0	; 224
 b90:	fe 4f       	sbci	r31, 0xFE	; 254
 b92:	50 81       	ld	r21, Z
 b94:	83 5f       	subi	r24, 0xF3	; 243
 b96:	99 4f       	sbci	r25, 0xF9	; 249
 b98:	fc 01       	movw	r30, r24
 b9a:	e2 0f       	add	r30, r18
 b9c:	f3 1f       	adc	r31, r19
 b9e:	55 83       	std	Z+5, r21	; 0x05
 ba0:	4f 5f       	subi	r20, 0xFF	; 255
 ba2:	01 c0       	rjmp	.+2      	; 0xba6 <rotateActiveBrick+0xfc>
 ba4:	40 e0       	ldi	r20, 0x00	; 0
 ba6:	44 30       	cpi	r20, 0x04	; 4
 ba8:	18 f3       	brcs	.-58     	; 0xb70 <rotateActiveBrick+0xc6>
 baa:	6f 5f       	subi	r22, 0xFF	; 255
 bac:	01 c0       	rjmp	.+2      	; 0xbb0 <rotateActiveBrick+0x106>
 bae:	60 e0       	ldi	r22, 0x00	; 0
 bb0:	64 30       	cpi	r22, 0x04	; 4
 bb2:	c0 f3       	brcs	.-16     	; 0xba4 <rotateActiveBrick+0xfa>
 bb4:	74 30       	cpi	r23, 0x04	; 4
 bb6:	08 f4       	brcc	.+2      	; 0xbba <rotateActiveBrick+0x110>
 bb8:	58 c0       	rjmp	.+176    	; 0xc6a <rotateActiveBrick+0x1c0>
 bba:	10 92 62 02 	sts	0x0262, r1	; 0x800262 <t_rot>
 bbe:	55 c0       	rjmp	.+170    	; 0xc6a <rotateActiveBrick+0x1c0>
 bc0:	90 91 5f 02 	lds	r25, 0x025F	; 0x80025f <selectedBrick>
 bc4:	99 23       	and	r25, r25
 bc6:	09 f4       	brne	.+2      	; 0xbca <rotateActiveBrick+0x120>
 bc8:	7d c0       	rjmp	.+250    	; 0xcc4 <rotateActiveBrick+0x21a>
 bca:	84 30       	cpi	r24, 0x04	; 4
 bcc:	09 f0       	breq	.+2      	; 0xbd0 <rotateActiveBrick+0x126>
 bce:	4d c0       	rjmp	.+154    	; 0xc6a <rotateActiveBrick+0x1c0>
 bd0:	80 91 61 02 	lds	r24, 0x0261	; 0x800261 <I_rot>
 bd4:	88 23       	and	r24, r24
 bd6:	09 f1       	breq	.+66     	; 0xc1a <rotateActiveBrick+0x170>
 bd8:	60 e0       	ldi	r22, 0x00	; 0
 bda:	43 c0       	rjmp	.+134    	; 0xc62 <rotateActiveBrick+0x1b8>
 bdc:	86 2f       	mov	r24, r22
 bde:	90 e0       	ldi	r25, 0x00	; 0
 be0:	24 2f       	mov	r18, r20
 be2:	30 e0       	ldi	r19, 0x00	; 0
 be4:	88 0f       	add	r24, r24
 be6:	99 1f       	adc	r25, r25
 be8:	88 0f       	add	r24, r24
 bea:	99 1f       	adc	r25, r25
 bec:	fc 01       	movw	r30, r24
 bee:	e2 0f       	add	r30, r18
 bf0:	f3 1f       	adc	r31, r19
 bf2:	e8 58       	subi	r30, 0x88	; 136
 bf4:	ff 4f       	sbci	r31, 0xFF	; 255
 bf6:	ee 0f       	add	r30, r30
 bf8:	ff 1f       	adc	r31, r31
 bfa:	e0 5e       	subi	r30, 0xE0	; 224
 bfc:	fe 4f       	sbci	r31, 0xFE	; 254
 bfe:	50 81       	ld	r21, Z
 c00:	83 5f       	subi	r24, 0xF3	; 243
 c02:	99 4f       	sbci	r25, 0xF9	; 249
 c04:	fc 01       	movw	r30, r24
 c06:	e2 0f       	add	r30, r18
 c08:	f3 1f       	adc	r31, r19
 c0a:	55 83       	std	Z+5, r21	; 0x05
 c0c:	4f 5f       	subi	r20, 0xFF	; 255
 c0e:	01 c0       	rjmp	.+2      	; 0xc12 <rotateActiveBrick+0x168>
 c10:	40 e0       	ldi	r20, 0x00	; 0
 c12:	44 30       	cpi	r20, 0x04	; 4
 c14:	18 f3       	brcs	.-58     	; 0xbdc <rotateActiveBrick+0x132>
 c16:	6f 5f       	subi	r22, 0xFF	; 255
 c18:	01 c0       	rjmp	.+2      	; 0xc1c <rotateActiveBrick+0x172>
 c1a:	60 e0       	ldi	r22, 0x00	; 0
 c1c:	64 30       	cpi	r22, 0x04	; 4
 c1e:	c0 f3       	brcs	.-16     	; 0xc10 <rotateActiveBrick+0x166>
 c20:	81 e0       	ldi	r24, 0x01	; 1
 c22:	80 93 61 02 	sts	0x0261, r24	; 0x800261 <I_rot>
 c26:	21 c0       	rjmp	.+66     	; 0xc6a <rotateActiveBrick+0x1c0>
 c28:	86 2f       	mov	r24, r22
 c2a:	90 e0       	ldi	r25, 0x00	; 0
 c2c:	24 2f       	mov	r18, r20
 c2e:	30 e0       	ldi	r19, 0x00	; 0
 c30:	88 0f       	add	r24, r24
 c32:	99 1f       	adc	r25, r25
 c34:	88 0f       	add	r24, r24
 c36:	99 1f       	adc	r25, r25
 c38:	fc 01       	movw	r30, r24
 c3a:	e2 0f       	add	r30, r18
 c3c:	f3 1f       	adc	r31, r19
 c3e:	72 96       	adiw	r30, 0x12	; 18
 c40:	ee 0f       	add	r30, r30
 c42:	ff 1f       	adc	r31, r31
 c44:	e0 5e       	subi	r30, 0xE0	; 224
 c46:	fe 4f       	sbci	r31, 0xFE	; 254
 c48:	50 81       	ld	r21, Z
 c4a:	83 5f       	subi	r24, 0xF3	; 243
 c4c:	99 4f       	sbci	r25, 0xF9	; 249
 c4e:	fc 01       	movw	r30, r24
 c50:	e2 0f       	add	r30, r18
 c52:	f3 1f       	adc	r31, r19
 c54:	55 83       	std	Z+5, r21	; 0x05
 c56:	4f 5f       	subi	r20, 0xFF	; 255
 c58:	01 c0       	rjmp	.+2      	; 0xc5c <rotateActiveBrick+0x1b2>
 c5a:	40 e0       	ldi	r20, 0x00	; 0
 c5c:	44 30       	cpi	r20, 0x04	; 4
 c5e:	20 f3       	brcs	.-56     	; 0xc28 <rotateActiveBrick+0x17e>
 c60:	6f 5f       	subi	r22, 0xFF	; 255
 c62:	64 30       	cpi	r22, 0x04	; 4
 c64:	d0 f3       	brcs	.-12     	; 0xc5a <rotateActiveBrick+0x1b0>
 c66:	10 92 61 02 	sts	0x0261, r1	; 0x800261 <I_rot>
 c6a:	8d e0       	ldi	r24, 0x0D	; 13
 c6c:	96 e0       	ldi	r25, 0x06	; 6
 c6e:	0e 94 76 03 	call	0x6ec	; 0x6ec <checkSidesCollision>
 c72:	89 2b       	or	r24, r25
 c74:	29 f5       	brne	.+74     	; 0xcc0 <rotateActiveBrick+0x216>
 c76:	8d e0       	ldi	r24, 0x0D	; 13
 c78:	96 e0       	ldi	r25, 0x06	; 6
 c7a:	0e 94 9a 03 	call	0x734	; 0x734 <checkFieldCollision>
 c7e:	89 2b       	or	r24, r25
 c80:	e1 f0       	breq	.+56     	; 0xcba <rotateActiveBrick+0x210>
 c82:	1e c0       	rjmp	.+60     	; 0xcc0 <rotateActiveBrick+0x216>
 c84:	86 2f       	mov	r24, r22
 c86:	90 e0       	ldi	r25, 0x00	; 0
 c88:	24 2f       	mov	r18, r20
 c8a:	30 e0       	ldi	r19, 0x00	; 0
 c8c:	88 0f       	add	r24, r24
 c8e:	99 1f       	adc	r25, r25
 c90:	88 0f       	add	r24, r24
 c92:	99 1f       	adc	r25, r25
 c94:	fc 01       	movw	r30, r24
 c96:	e3 5f       	subi	r30, 0xF3	; 243
 c98:	f9 4f       	sbci	r31, 0xF9	; 249
 c9a:	e2 0f       	add	r30, r18
 c9c:	f3 1f       	adc	r31, r19
 c9e:	55 81       	ldd	r21, Z+5	; 0x05
 ca0:	89 50       	subi	r24, 0x09	; 9
 ca2:	9a 4f       	sbci	r25, 0xFA	; 250
 ca4:	fc 01       	movw	r30, r24
 ca6:	e2 0f       	add	r30, r18
 ca8:	f3 1f       	adc	r31, r19
 caa:	55 83       	std	Z+5, r21	; 0x05
 cac:	4f 5f       	subi	r20, 0xFF	; 255
 cae:	01 c0       	rjmp	.+2      	; 0xcb2 <rotateActiveBrick+0x208>
 cb0:	40 e0       	ldi	r20, 0x00	; 0
 cb2:	44 30       	cpi	r20, 0x04	; 4
 cb4:	38 f3       	brcs	.-50     	; 0xc84 <rotateActiveBrick+0x1da>
 cb6:	6f 5f       	subi	r22, 0xFF	; 255
 cb8:	01 c0       	rjmp	.+2      	; 0xcbc <rotateActiveBrick+0x212>
 cba:	60 e0       	ldi	r22, 0x00	; 0
 cbc:	64 30       	cpi	r22, 0x04	; 4
 cbe:	c0 f3       	brcs	.-16     	; 0xcb0 <rotateActiveBrick+0x206>
 cc0:	0e 94 cc 03 	call	0x798	; 0x798 <printField>
 cc4:	08 95       	ret

00000cc6 <shiftActiveBrick>:
 cc6:	cf 93       	push	r28
 cc8:	df 93       	push	r29
 cca:	c8 2f       	mov	r28, r24
 ccc:	8c 36       	cpi	r24, 0x6C	; 108
 cce:	31 f4       	brne	.+12     	; 0xcdc <shiftActiveBrick+0x16>
 cd0:	e7 ef       	ldi	r30, 0xF7	; 247
 cd2:	f5 e0       	ldi	r31, 0x05	; 5
 cd4:	81 81       	ldd	r24, Z+1	; 0x01
 cd6:	81 50       	subi	r24, 0x01	; 1
 cd8:	81 83       	std	Z+1, r24	; 0x01
 cda:	1e c0       	rjmp	.+60     	; 0xd18 <shiftActiveBrick+0x52>
 cdc:	82 37       	cpi	r24, 0x72	; 114
 cde:	31 f4       	brne	.+12     	; 0xcec <shiftActiveBrick+0x26>
 ce0:	e7 ef       	ldi	r30, 0xF7	; 247
 ce2:	f5 e0       	ldi	r31, 0x05	; 5
 ce4:	81 81       	ldd	r24, Z+1	; 0x01
 ce6:	8f 5f       	subi	r24, 0xFF	; 255
 ce8:	81 83       	std	Z+1, r24	; 0x01
 cea:	16 c0       	rjmp	.+44     	; 0xd18 <shiftActiveBrick+0x52>
 cec:	84 36       	cpi	r24, 0x64	; 100
 cee:	a1 f4       	brne	.+40     	; 0xd18 <shiftActiveBrick+0x52>
 cf0:	e7 ef       	ldi	r30, 0xF7	; 247
 cf2:	f5 e0       	ldi	r31, 0x05	; 5
 cf4:	82 81       	ldd	r24, Z+2	; 0x02
 cf6:	81 50       	subi	r24, 0x01	; 1
 cf8:	82 83       	std	Z+2, r24	; 0x02
 cfa:	81 11       	cpse	r24, r1
 cfc:	0d c0       	rjmp	.+26     	; 0xd18 <shiftActiveBrick+0x52>
 cfe:	cf 01       	movw	r24, r30
 d00:	0e 94 9a 03 	call	0x734	; 0x734 <checkFieldCollision>
 d04:	89 2b       	or	r24, r25
 d06:	41 f4       	brne	.+16     	; 0xd18 <shiftActiveBrick+0x52>
 d08:	0e 94 1c 03 	call	0x638	; 0x638 <addActiveBrickToField>
 d0c:	10 92 f7 05 	sts	0x05F7, r1	; 0x8005f7 <activeBrick>
 d10:	0e 94 cc 03 	call	0x798	; 0x798 <printField>
 d14:	0e 94 b6 04 	call	0x96c	; 0x96c <newActiveBrick>
 d18:	87 ef       	ldi	r24, 0xF7	; 247
 d1a:	95 e0       	ldi	r25, 0x05	; 5
 d1c:	0e 94 76 03 	call	0x6ec	; 0x6ec <checkSidesCollision>
 d20:	89 2b       	or	r24, r25
 d22:	31 f4       	brne	.+12     	; 0xd30 <shiftActiveBrick+0x6a>
 d24:	87 ef       	ldi	r24, 0xF7	; 247
 d26:	95 e0       	ldi	r25, 0x05	; 5
 d28:	0e 94 9a 03 	call	0x734	; 0x734 <checkFieldCollision>
 d2c:	89 2b       	or	r24, r25
 d2e:	f1 f0       	breq	.+60     	; 0xd6c <shiftActiveBrick+0xa6>
 d30:	cc 36       	cpi	r28, 0x6C	; 108
 d32:	31 f4       	brne	.+12     	; 0xd40 <shiftActiveBrick+0x7a>
 d34:	e7 ef       	ldi	r30, 0xF7	; 247
 d36:	f5 e0       	ldi	r31, 0x05	; 5
 d38:	81 81       	ldd	r24, Z+1	; 0x01
 d3a:	8f 5f       	subi	r24, 0xFF	; 255
 d3c:	81 83       	std	Z+1, r24	; 0x01
 d3e:	16 c0       	rjmp	.+44     	; 0xd6c <shiftActiveBrick+0xa6>
 d40:	c2 37       	cpi	r28, 0x72	; 114
 d42:	31 f4       	brne	.+12     	; 0xd50 <shiftActiveBrick+0x8a>
 d44:	e7 ef       	ldi	r30, 0xF7	; 247
 d46:	f5 e0       	ldi	r31, 0x05	; 5
 d48:	81 81       	ldd	r24, Z+1	; 0x01
 d4a:	81 50       	subi	r24, 0x01	; 1
 d4c:	81 83       	std	Z+1, r24	; 0x01
 d4e:	0e c0       	rjmp	.+28     	; 0xd6c <shiftActiveBrick+0xa6>
 d50:	c4 36       	cpi	r28, 0x64	; 100
 d52:	61 f4       	brne	.+24     	; 0xd6c <shiftActiveBrick+0xa6>
 d54:	c7 ef       	ldi	r28, 0xF7	; 247
 d56:	d5 e0       	ldi	r29, 0x05	; 5
 d58:	8a 81       	ldd	r24, Y+2	; 0x02
 d5a:	8f 5f       	subi	r24, 0xFF	; 255
 d5c:	8a 83       	std	Y+2, r24	; 0x02
 d5e:	0e 94 1c 03 	call	0x638	; 0x638 <addActiveBrickToField>
 d62:	18 82       	st	Y, r1
 d64:	0e 94 cc 03 	call	0x798	; 0x798 <printField>
 d68:	0e 94 b6 04 	call	0x96c	; 0x96c <newActiveBrick>
 d6c:	0e 94 cc 03 	call	0x798	; 0x798 <printField>
 d70:	85 e8       	ldi	r24, 0x85	; 133
 d72:	8a 95       	dec	r24
 d74:	f1 f7       	brne	.-4      	; 0xd72 <shiftActiveBrick+0xac>
 d76:	00 00       	nop
 d78:	df 91       	pop	r29
 d7a:	cf 91       	pop	r28
 d7c:	08 95       	ret

00000d7e <moveFieldDownOne>:
 d7e:	83 31       	cpi	r24, 0x13	; 19
 d80:	09 f0       	breq	.+2      	; 0xd84 <moveFieldDownOne+0x6>
 d82:	45 c0       	rjmp	.+138    	; 0xe0e <moveFieldDownOne+0x90>
 d84:	08 95       	ret
 d86:	48 2f       	mov	r20, r24
 d88:	50 e0       	ldi	r21, 0x00	; 0
 d8a:	9a 01       	movw	r18, r20
 d8c:	2f 5f       	subi	r18, 0xFF	; 255
 d8e:	3f 4f       	sbci	r19, 0xFF	; 255
 d90:	69 2f       	mov	r22, r25
 d92:	70 e0       	ldi	r23, 0x00	; 0
 d94:	ad e0       	ldi	r26, 0x0D	; 13
 d96:	a2 9f       	mul	r26, r18
 d98:	f0 01       	movw	r30, r0
 d9a:	a3 9f       	mul	r26, r19
 d9c:	f0 0d       	add	r31, r0
 d9e:	11 24       	eor	r1, r1
 da0:	ea 5d       	subi	r30, 0xDA	; 218
 da2:	f9 4f       	sbci	r31, 0xF9	; 249
 da4:	e6 0f       	add	r30, r22
 da6:	f7 1f       	adc	r31, r23
 da8:	b0 81       	ld	r27, Z
 daa:	a4 9f       	mul	r26, r20
 dac:	f0 01       	movw	r30, r0
 dae:	a5 9f       	mul	r26, r21
 db0:	f0 0d       	add	r31, r0
 db2:	11 24       	eor	r1, r1
 db4:	ea 5d       	subi	r30, 0xDA	; 218
 db6:	f9 4f       	sbci	r31, 0xF9	; 249
 db8:	e6 0f       	add	r30, r22
 dba:	f7 1f       	adc	r31, r23
 dbc:	b0 83       	st	Z, r27
 dbe:	f9 01       	movw	r30, r18
 dc0:	ee 0f       	add	r30, r30
 dc2:	ff 1f       	adc	r31, r31
 dc4:	e2 0f       	add	r30, r18
 dc6:	f3 1f       	adc	r31, r19
 dc8:	ee 0f       	add	r30, r30
 dca:	ff 1f       	adc	r31, r31
 dcc:	ee 0f       	add	r30, r30
 dce:	ff 1f       	adc	r31, r31
 dd0:	ea 5d       	subi	r30, 0xDA	; 218
 dd2:	f9 4f       	sbci	r31, 0xF9	; 249
 dd4:	e6 0f       	add	r30, r22
 dd6:	f7 1f       	adc	r31, r23
 dd8:	ec 5f       	subi	r30, 0xFC	; 252
 dda:	fe 4f       	sbci	r31, 0xFE	; 254
 ddc:	20 81       	ld	r18, Z
 dde:	fa 01       	movw	r30, r20
 de0:	ee 0f       	add	r30, r30
 de2:	ff 1f       	adc	r31, r31
 de4:	4e 0f       	add	r20, r30
 de6:	5f 1f       	adc	r21, r31
 de8:	44 0f       	add	r20, r20
 dea:	55 1f       	adc	r21, r21
 dec:	44 0f       	add	r20, r20
 dee:	55 1f       	adc	r21, r21
 df0:	4a 5d       	subi	r20, 0xDA	; 218
 df2:	59 4f       	sbci	r21, 0xF9	; 249
 df4:	46 0f       	add	r20, r22
 df6:	57 1f       	adc	r21, r23
 df8:	fa 01       	movw	r30, r20
 dfa:	ec 5f       	subi	r30, 0xFC	; 252
 dfc:	fe 4f       	sbci	r31, 0xFE	; 254
 dfe:	20 83       	st	Z, r18
 e00:	9f 5f       	subi	r25, 0xFF	; 255
 e02:	01 c0       	rjmp	.+2      	; 0xe06 <moveFieldDownOne+0x88>
 e04:	90 e0       	ldi	r25, 0x00	; 0
 e06:	9c 30       	cpi	r25, 0x0C	; 12
 e08:	08 f4       	brcc	.+2      	; 0xe0c <moveFieldDownOne+0x8e>
 e0a:	bd cf       	rjmp	.-134    	; 0xd86 <moveFieldDownOne+0x8>
 e0c:	8f 5f       	subi	r24, 0xFF	; 255
 e0e:	83 31       	cpi	r24, 0x13	; 19
 e10:	c8 f3       	brcs	.-14     	; 0xe04 <moveFieldDownOne+0x86>
 e12:	08 95       	ret

00000e14 <checkFullLines>:
 e14:	ef 92       	push	r14
 e16:	ff 92       	push	r15
 e18:	0f 93       	push	r16
 e1a:	1f 93       	push	r17
 e1c:	cf 93       	push	r28
 e1e:	df 93       	push	r29
 e20:	c0 e0       	ldi	r28, 0x00	; 0
 e22:	d0 e0       	ldi	r29, 0x00	; 0
 e24:	03 e1       	ldi	r16, 0x13	; 19
 e26:	10 e0       	ldi	r17, 0x00	; 0
 e28:	64 c0       	rjmp	.+200    	; 0xef2 <checkFullLines+0xde>
 e2a:	3d e0       	ldi	r19, 0x0D	; 13
 e2c:	30 9f       	mul	r19, r16
 e2e:	f0 01       	movw	r30, r0
 e30:	31 9f       	mul	r19, r17
 e32:	f0 0d       	add	r31, r0
 e34:	11 24       	eor	r1, r1
 e36:	ea 5d       	subi	r30, 0xDA	; 218
 e38:	f9 4f       	sbci	r31, 0xF9	; 249
 e3a:	e8 0f       	add	r30, r24
 e3c:	f9 1f       	adc	r31, r25
 e3e:	30 81       	ld	r19, Z
 e40:	23 0f       	add	r18, r19
 e42:	01 96       	adiw	r24, 0x01	; 1
 e44:	03 c0       	rjmp	.+6      	; 0xe4c <checkFullLines+0x38>
 e46:	20 e0       	ldi	r18, 0x00	; 0
 e48:	80 e0       	ldi	r24, 0x00	; 0
 e4a:	90 e0       	ldi	r25, 0x00	; 0
 e4c:	8c 30       	cpi	r24, 0x0C	; 12
 e4e:	91 05       	cpc	r25, r1
 e50:	64 f3       	brlt	.-40     	; 0xe2a <checkFullLines+0x16>
 e52:	2c 30       	cpi	r18, 0x0C	; 12
 e54:	c0 f4       	brcc	.+48     	; 0xe86 <checkFullLines+0x72>
 e56:	4b c0       	rjmp	.+150    	; 0xeee <checkFullLines+0xda>
 e58:	8d e0       	ldi	r24, 0x0D	; 13
 e5a:	80 9f       	mul	r24, r16
 e5c:	f0 01       	movw	r30, r0
 e5e:	81 9f       	mul	r24, r17
 e60:	f0 0d       	add	r31, r0
 e62:	11 24       	eor	r1, r1
 e64:	ea 5d       	subi	r30, 0xDA	; 218
 e66:	f9 4f       	sbci	r31, 0xF9	; 249
 e68:	ee 0d       	add	r30, r14
 e6a:	ff 1d       	adc	r31, r15
 e6c:	10 82       	st	Z, r1
 e6e:	0e 94 cc 03 	call	0x798	; 0x798 <printField>
 e72:	87 ee       	ldi	r24, 0xE7	; 231
 e74:	93 e0       	ldi	r25, 0x03	; 3
 e76:	01 97       	sbiw	r24, 0x01	; 1
 e78:	f1 f7       	brne	.-4      	; 0xe76 <checkFullLines+0x62>
 e7a:	00 c0       	rjmp	.+0      	; 0xe7c <checkFullLines+0x68>
 e7c:	00 00       	nop
 e7e:	9f ef       	ldi	r25, 0xFF	; 255
 e80:	e9 1a       	sub	r14, r25
 e82:	f9 0a       	sbc	r15, r25
 e84:	02 c0       	rjmp	.+4      	; 0xe8a <checkFullLines+0x76>
 e86:	e1 2c       	mov	r14, r1
 e88:	f1 2c       	mov	r15, r1
 e8a:	2c e0       	ldi	r18, 0x0C	; 12
 e8c:	e2 16       	cp	r14, r18
 e8e:	f1 04       	cpc	r15, r1
 e90:	1c f3       	brlt	.-58     	; 0xe58 <checkFullLines+0x44>
 e92:	80 2f       	mov	r24, r16
 e94:	0e 94 bf 06 	call	0xd7e	; 0xd7e <moveFieldDownOne>
 e98:	0f 5f       	subi	r16, 0xFF	; 255
 e9a:	1f 4f       	sbci	r17, 0xFF	; 255
 e9c:	21 96       	adiw	r28, 0x01	; 1
 e9e:	0e 94 cc 03 	call	0x798	; 0x798 <printField>
 ea2:	8f ef       	ldi	r24, 0xFF	; 255
 ea4:	90 e7       	ldi	r25, 0x70	; 112
 ea6:	22 e0       	ldi	r18, 0x02	; 2
 ea8:	81 50       	subi	r24, 0x01	; 1
 eaa:	90 40       	sbci	r25, 0x00	; 0
 eac:	20 40       	sbci	r18, 0x00	; 0
 eae:	e1 f7       	brne	.-8      	; 0xea8 <checkFullLines+0x94>
 eb0:	00 c0       	rjmp	.+0      	; 0xeb2 <checkFullLines+0x9e>
 eb2:	00 00       	nop
 eb4:	80 91 f6 05 	lds	r24, 0x05F6	; 0x8005f6 <nbRowsThisLevel>
 eb8:	8f 5f       	subi	r24, 0xFF	; 255
 eba:	80 93 f6 05 	sts	0x05F6, r24	; 0x8005f6 <nbRowsThisLevel>
 ebe:	80 91 24 06 	lds	r24, 0x0624	; 0x800624 <nbRowsTotal>
 ec2:	90 91 25 06 	lds	r25, 0x0625	; 0x800625 <nbRowsTotal+0x1>
 ec6:	01 96       	adiw	r24, 0x01	; 1
 ec8:	90 93 25 06 	sts	0x0625, r25	; 0x800625 <nbRowsTotal+0x1>
 ecc:	80 93 24 06 	sts	0x0624, r24	; 0x800624 <nbRowsTotal>
 ed0:	80 91 53 02 	lds	r24, 0x0253	; 0x800253 <falltime>
 ed4:	90 91 54 02 	lds	r25, 0x0254	; 0x800254 <falltime+0x1>
 ed8:	89 97       	sbiw	r24, 0x29	; 41
 eda:	4c f0       	brlt	.+18     	; 0xeee <checkFullLines+0xda>
 edc:	80 91 53 02 	lds	r24, 0x0253	; 0x800253 <falltime>
 ee0:	90 91 54 02 	lds	r25, 0x0254	; 0x800254 <falltime+0x1>
 ee4:	44 97       	sbiw	r24, 0x14	; 20
 ee6:	90 93 54 02 	sts	0x0254, r25	; 0x800254 <falltime+0x1>
 eea:	80 93 53 02 	sts	0x0253, r24	; 0x800253 <falltime>
 eee:	01 50       	subi	r16, 0x01	; 1
 ef0:	11 09       	sbc	r17, r1
 ef2:	0c 17       	cp	r16, r28
 ef4:	1d 07       	cpc	r17, r29
 ef6:	0c f0       	brlt	.+2      	; 0xefa <checkFullLines+0xe6>
 ef8:	a6 cf       	rjmp	.-180    	; 0xe46 <checkFullLines+0x32>
 efa:	df 91       	pop	r29
 efc:	cf 91       	pop	r28
 efe:	1f 91       	pop	r17
 f00:	0f 91       	pop	r16
 f02:	ff 90       	pop	r15
 f04:	ef 90       	pop	r14
 f06:	08 95       	ret

00000f08 <clearField>:
 f08:	40 e0       	ldi	r20, 0x00	; 0
 f0a:	50 e0       	ldi	r21, 0x00	; 0
 f0c:	14 c0       	rjmp	.+40     	; 0xf36 <clearField+0x2e>
 f0e:	2d e0       	ldi	r18, 0x0D	; 13
 f10:	28 9f       	mul	r18, r24
 f12:	f0 01       	movw	r30, r0
 f14:	29 9f       	mul	r18, r25
 f16:	f0 0d       	add	r31, r0
 f18:	11 24       	eor	r1, r1
 f1a:	ea 5d       	subi	r30, 0xDA	; 218
 f1c:	f9 4f       	sbci	r31, 0xF9	; 249
 f1e:	e4 0f       	add	r30, r20
 f20:	f5 1f       	adc	r31, r21
 f22:	10 82       	st	Z, r1
 f24:	01 96       	adiw	r24, 0x01	; 1
 f26:	02 c0       	rjmp	.+4      	; 0xf2c <clearField+0x24>
 f28:	80 e0       	ldi	r24, 0x00	; 0
 f2a:	90 e0       	ldi	r25, 0x00	; 0
 f2c:	84 31       	cpi	r24, 0x14	; 20
 f2e:	91 05       	cpc	r25, r1
 f30:	74 f3       	brlt	.-36     	; 0xf0e <clearField+0x6>
 f32:	4f 5f       	subi	r20, 0xFF	; 255
 f34:	5f 4f       	sbci	r21, 0xFF	; 255
 f36:	4c 30       	cpi	r20, 0x0C	; 12
 f38:	51 05       	cpc	r21, r1
 f3a:	b4 f3       	brlt	.-20     	; 0xf28 <clearField+0x20>
 f3c:	08 95       	ret

00000f3e <clearTable>:
 f3e:	8c e2       	ldi	r24, 0x2C	; 44
 f40:	91 e0       	ldi	r25, 0x01	; 1
 f42:	0b c0       	rjmp	.+22     	; 0xf5a <clearTable+0x1c>
 f44:	01 97       	sbiw	r24, 0x01	; 1
 f46:	fc 01       	movw	r30, r24
 f48:	ee 0f       	add	r30, r30
 f4a:	ff 1f       	adc	r31, r31
 f4c:	e8 0f       	add	r30, r24
 f4e:	f9 1f       	adc	r31, r25
 f50:	ee 58       	subi	r30, 0x8E	; 142
 f52:	fd 4f       	sbci	r31, 0xFD	; 253
 f54:	11 82       	std	Z+1, r1	; 0x01
 f56:	10 82       	st	Z, r1
 f58:	12 82       	std	Z+2, r1	; 0x02
 f5a:	18 16       	cp	r1, r24
 f5c:	19 06       	cpc	r1, r25
 f5e:	94 f3       	brlt	.-28     	; 0xf44 <clearTable+0x6>
 f60:	6c e2       	ldi	r22, 0x2C	; 44
 f62:	71 e0       	ldi	r23, 0x01	; 1
 f64:	82 e7       	ldi	r24, 0x72	; 114
 f66:	92 e0       	ldi	r25, 0x02	; 2
 f68:	0e 94 c3 01 	call	0x386	; 0x386 <ws2812_setleds>
 f6c:	85 e8       	ldi	r24, 0x85	; 133
 f6e:	8a 95       	dec	r24
 f70:	f1 f7       	brne	.-4      	; 0xf6e <clearTable+0x30>
 f72:	00 00       	nop
 f74:	08 95       	ret

00000f76 <Pause>:
 f76:	0e 94 9f 07 	call	0xf3e	; 0xf3e <clearTable>
 f7a:	80 91 52 02 	lds	r24, 0x0252	; 0x800252 <pause>
 f7e:	88 23       	and	r24, r24
 f80:	e1 f3       	breq	.-8      	; 0xf7a <Pause+0x4>
 f82:	80 91 6f 02 	lds	r24, 0x026F	; 0x80026f <button>
 f86:	10 92 52 02 	sts	0x0252, r1	; 0x800252 <pause>
 f8a:	0e 94 cc 03 	call	0x798	; 0x798 <printField>
 f8e:	08 95       	ret

00000f90 <forcedown>:
}
*/

//Piece goes all the way down until it reached the bottom or another piece
void forcedown()
{
 f90:	0f 93       	push	r16
 f92:	1f 93       	push	r17
 f94:	cf 93       	push	r28
	while (!(activeBrick.ypos == 0) || !checkFieldCollision(&activeBrick))
 f96:	21 c0       	rjmp	.+66     	; 0xfda <forcedown+0x4a>
	{
		activeBrick.ypos--;
 f98:	8f ef       	ldi	r24, 0xFF	; 255
 f9a:	8c 0f       	add	r24, r28
 f9c:	80 93 f9 05 	sts	0x05F9, r24	; 0x8005f9 <activeBrick+0x2>
		
		if (checkFieldCollision(&activeBrick))
 fa0:	87 ef       	ldi	r24, 0xF7	; 247
 fa2:	95 e0       	ldi	r25, 0x05	; 5
 fa4:	0e 94 9a 03 	call	0x734	; 0x734 <checkFieldCollision>
 fa8:	89 2b       	or	r24, r25
 faa:	41 f0       	breq	.+16     	; 0xfbc <forcedown+0x2c>
		{
			activeBrick.ypos++;		//Go back up one
 fac:	07 ef       	ldi	r16, 0xF7	; 247
 fae:	15 e0       	ldi	r17, 0x05	; 5
 fb0:	f8 01       	movw	r30, r16
 fb2:	c2 83       	std	Z+2, r28	; 0x02
			addActiveBrickToField();
 fb4:	0e 94 1c 03 	call	0x638	; 0x638 <addActiveBrickToField>
			activeBrick.enabled = 0;//Disable brick, it is no longer moving
 fb8:	f8 01       	movw	r30, r16
 fba:	10 82       	st	Z, r1
			//clearNext();
		}
		
		
		if (activeBrick.ypos == 0)
 fbc:	80 91 f9 05 	lds	r24, 0x05F9	; 0x8005f9 <activeBrick+0x2>
 fc0:	81 11       	cpse	r24, r1
 fc2:	09 c0       	rjmp	.+18     	; 0xfd6 <forcedown+0x46>
		{
			addActiveBrickToField();
 fc4:	0e 94 1c 03 	call	0x638	; 0x638 <addActiveBrickToField>
			activeBrick.enabled = 0;
 fc8:	10 92 f7 05 	sts	0x05F7, r1	; 0x8005f7 <activeBrick>
			printField();
 fcc:	0e 94 cc 03 	call	0x798	; 0x798 <printField>
			newActiveBrick();
 fd0:	0e 94 b6 04 	call	0x96c	; 0x96c <newActiveBrick>
			//clearNext();
			break;
 fd4:	0c c0       	rjmp	.+24     	; 0xfee <forcedown+0x5e>
		}
		printField();
 fd6:	0e 94 cc 03 	call	0x798	; 0x798 <printField>
*/

//Piece goes all the way down until it reached the bottom or another piece
void forcedown()
{
	while (!(activeBrick.ypos == 0) || !checkFieldCollision(&activeBrick))
 fda:	c0 91 f9 05 	lds	r28, 0x05F9	; 0x8005f9 <activeBrick+0x2>
 fde:	c1 11       	cpse	r28, r1
 fe0:	db cf       	rjmp	.-74     	; 0xf98 <forcedown+0x8>
 fe2:	87 ef       	ldi	r24, 0xF7	; 247
 fe4:	95 e0       	ldi	r25, 0x05	; 5
 fe6:	0e 94 9a 03 	call	0x734	; 0x734 <checkFieldCollision>
 fea:	89 2b       	or	r24, r25
 fec:	a9 f2       	breq	.-86     	; 0xf98 <forcedown+0x8>
			break;
		}
		printField();
		
	}
}
 fee:	cf 91       	pop	r28
 ff0:	1f 91       	pop	r17
 ff2:	0f 91       	pop	r16
 ff4:	08 95       	ret

00000ff6 <_exit>:
 ff6:	f8 94       	cli

00000ff8 <__stop_program>:
 ff8:	ff cf       	rjmp	.-2      	; 0xff8 <__stop_program>
